(lp1
S'www.a16z.com/tech-topics/'
p2
aS'www.a16z.com/author/jeff-jordan/'
p3
aS'www.a16z.com/category/china/'
p4
aS'www.a16z.com/about/'
p5
aS'www.a16z.com/podcasts/'
p6
aS'www.a16z.com/author/jordan-stankowski/'
p7
aS'www.a16z.com/author/connie-chan/'
p8
aS'www.medium.com/learning-by-shipping/why-the-heck-can-t-we-change-our-product-d88533b5bc2d#.wak2cmmcc'
p9
aS'www.a16z.com/advice-and-how-to/'
p10
aS'www.a16z.com/author/angela-strange/'
p11
aS'www.a16z.com/2016/02/04/a16z-podcast-building-affirm-and-why-max-levchin-has-watched-seven-samurai-100-plus-times/'
p12
aS'www.a16z.altareturn.com'
p13
aS'www.a16z.com/category/innovation-clusters/'
p14
aS'www.a16z.com/posts/'
p15
aS'www.a16z.com/author/chris-dixon/'
p16
aS'www.ben-evans.com/benedictevans/2016/2/19/mobile-smartphones-and-hindsight'
p17
aS'www.a16z.com/2016/02/06/a16z-podcast-breaking-the-barriers-of-human-potential/'
p18
aVwww.a16z.com/#content
p19
aS'www.a16z.com/2016/02/05/hall-of-fame-football-meets-venture-capital/'
p20
aS'www.a16z.com/2016/02/22/whats-next-in-computing/'
p21
aS'www.a16z.com/author/steven-sinofsky/'
p22
aS'www.a16z.com/author/ben-horowitz/'
p23
aS'www.a16z.com/'
p24
aS'www.vip.wordpress.com/'
p25
aS'www.a16z.com/briefings/'
p26
aS'www.a16z.com/author/benedict-evans/'
p27
aS'www.a16z.com/portfolio/'
p28
aS'www.a16z.com/about/contact/'
p29
aS'www.soundcloud.com/a16z'
p30
aS'www.a16z.com/tos-privacy/'
p31
aS'www.a16z.com/2016/02/16/mindsets-for-thinking-about-innovation-in-and-competition-from-china/'
p32
aS'www.a16z.com/2016/02/19/industries-of-the-future/'
p33
aS'www.a16z.com/author/anu-hariharan/'
p34
aS'www.a16z.com/2016/02/17/in-the-eye-of-a-tornado-views-on-innovation-from-china/'
p35
aS'www.twitter.com/a16z'
p36
aS'www.twitter.com/a16z/lists/a16z-partners'
p37
aS'www.a16z.com/2015/12/12/india-china/'
p38
aS'www.a16z.com/category/big-data/'
p39
aS'www.a16z.com/category/messaging/'
p40
aS'www.a16z.com/category/financial-services/'
p41
aS'www.a16z.com/category/policy/'
p42
aS'www.a16z.com/category/cloud-infrastructure/'
p43
aS'www.a16z.com/category/education/'
p44
aS'www.a16z.com/category/coding-literacy/'
p45
aS'www.a16z.com/category/open-source/'
p46
aS'www.a16z.com/category/automation/'
p47
aS'www.a16z.com/category/software-as-a-service/'
p48
aS'www.a16z.com/category/gaming/'
p49
aS'www.a16z.com/category/virtual-reality/'
p50
aS'www.a16z.com/category/internet-of-things-2/'
p51
aS'www.a16z.com/category/marketplaces/'
p52
aS'www.a16z.com/category/food-tech/'
p53
aS'www.a16z.com/category/bitcoin-blockchain/'
p54
aS'www.a16z.com/category/security-privacy/'
p55
aS'www.a16z.com/category/machine-learning/'
p56
aS'www.a16z.com/category/bio/'
p57
aS'www.a16z.com/category/mobile/'
p58
aS'www.a16z.com/author/frank-chen/'
p59
aS'www.twitter.com/jeff_jordan'
p60
aS'www.a16z.com/2015/08/21/16-metrics/'
p61
aS'www.a16z.com/2015/04/16/a16z-podcast-regulation-and-the-sharing-economy/'
p62
aS'www.a16z.com/2015/09/23/16-more-metrics/'
p63
aS'www.a16z.com/2015/11/04/offerup/'
p64
aS'www.a16z.com/2015/12/23/a16z-podcast-andre-iguodala-knows-tech-and-why-the-warriors-wont-be-stopped/'
p65
aS'www.a16z.com/2015/09/30/what-to-do-if-growth-stops/'
p66
aS'www.a16z.files.wordpress.com/2015/12/jeff_jordan_square.jpg?w=400&h=400&crop=1'
p67
aS'www.a16z.com/team'
p68
aS'www.a16z.com/2014/04/04/a16z-podcast-china-and-tech/'
p69
aS'www.a16z.com/author/jamie-mcgurk/'
p70
aS'www.a16z.com/author/steve-mcdermid/'
p71
aS'www.a16z.com/2014/11/04/alibabas-first-earnings-report-annotated/'
p72
aS'www.ben-evans.com/benedictevans/2015/1/18/why-do-we-care-about-xiaomi'
p73
aS'www.a16z.com/author/james-loftus/'
p74
aS'www.a16z.com/2015/08/27/messaging-portal-platform/'
p75
aS'www.a16z.com/about/team/'
p76
aS'www.jobs.lever.co/a16z/'
p77
aS'www.a16z.com/author/michael-copeland/'
p78
aS'www.a16z.com/author/marc-andreessen/'
p79
aS'www.a16z.com/author/sonal-chokshi/'
p80
aS'www.a16z.com/2015/10/04/podcast-about-podcasts/'
p81
aS'www.a16z.com/2014/10/17/a16z-podcast-the-definite-optimism-of-peter-thiel/'
p82
aS'www.a16z.com/2015/07/16/language-bigdata-machinelearning-bias/'
p83
aS'www.a16z.com/author/todd-lutwak/'
p84
aS'www.a16z.com/2016/02/06/super-bowl-50-are-you-ready-for-some-platform/'
p85
aS'www.linkedin.com/in/jordanstankowski'
p86
aS'http://www.linkedin.com/in/conniechan'
p87
aS'www.a16z.com/2015/08/06/wechat-china-mobile-first/'
p88
aS'www.a16z.com/advice-and-how-to/distribution/'
p89
aS'www.a16z.com/advice-and-how-to/going-global/'
p90
aS'www.a16z.com/advice-and-how-to/hr/'
p91
aS'www.a16z.com/advice-and-how-to/communities/'
p92
aS'www.a16z.com/advice-and-how-to/disruption-theory/'
p93
aS'www.a16z.com/advice-and-how-to/management/'
p94
aS'www.a16z.com/advice-and-how-to/market-sizing/'
p95
aS'www.a16z.com/advice-and-how-to/fundraising/'
p96
aS'www.a16z.com/advice-and-how-to/founders/'
p97
aS'www.a16z.com/advice-and-how-to/corp-dev/'
p98
aS'www.a16z.com/advice-and-how-to/hiring/'
p99
aS'www.a16z.com/advice-and-how-to/e-commerce/'
p100
aS'www.a16z.com/advice-and-how-to/design/'
p101
aS'www.a16z.com/advice-and-how-to/full-stack-startups/'
p102
aS'www.a16z.com/advice-and-how-to/product-management/'
p103
aS'www.a16z.com/advice-and-how-to/regulation/'
p104
aS'www.a16z.com/advice-and-how-to/culture/'
p105
aS'www.a16z.com/advice-and-how-to/sales/'
p106
aS'www.a16z.com/2015/01/09/pmarca-blog-ebook/'
p107
aS'www.a16z.com/advice-and-how-to/boards/'
p108
aS'www.a16z.com/advice-and-how-to/macro/'
p109
aS'www.a16z.com/advice-and-how-to/network-effects/'
p110
aS'www.a16z.com/advice-and-how-to/marketplaces/'
p111
aS'www.a16z.com/advice-and-how-to/big-company-innovation/'
p112
aS'www.a16z.com/advice-and-how-to/metrics/'
p113
aS'www.a16z.com/2014/02/25/why-i-will-give-100-of-my-book-earnings-to-women-in-the-struggle-2/'
p114
aS'www.a16z.com/advice-and-how-to/saas/'
p115
aS'www.linkedin.com/in/angelastrange'
p116
aS'www.a16z.com/2016/01/29/a16z-podcast-when-banking-works-like-my-smartphone/'
p117
aS'www.a16z.com/tag/jdm/'
p118
aS'www.a16z.com/2015/08/19/alexrampell/'
p119
aS'www.a16z.com/tag/fintech/'
p120
aS'www.a16z.com/tag/banking/'
p121
aS'www.a16z.com/2013/10/03/how-would-you-start-a-paypal-or-rebuild-visa-today-2/'
p122
aS'www.a16z.com/2010/09/21/the-right-way-to-lay-people-off/'
p123
aS'www.a16z.com/2010/07/02/ceos-should-tell-it-like-it-is/'
p124
aS'www.a16z.com/tag/payments/'
p125
aS'www.a16z.com/2014/01/21/why-bitcoin-matters-2/'
p126
aS'www.a16z.com/2016/01/25/africa-tech-context/'
p127
aS'www.a16z.com/2015/08/04/a16z-podcast-how-innovation-ecosystems-grow-around-the-globe/'
p128
aS'www.a16z.com/2015/12/04/scaling-ideas-and-startups-in-the-u-k-and-europe/'
p129
aS'www.a16z.com/2015/11/30/a16z-podcast-london-calling-for-tech-done-in-a-u-k-way/'
p130
aS'www.a16z.com/2015/06/30/this-is-a-tale-of-two-irans/'
p131
aS'www.a16z.com/2015/12/01/a16z-podcast-building-tech-startups-in-a-place-where-tech-isnt-everything/'
p132
aS'www.a16z.com/2014/06/20/what-it-will-take-to-create-the-next-great-silicon-valleys-plural/'
p133
aS'www.a16z.com/2015/10/13/a16z-podcast-the-role-of-academia-in-the-startup-world/'
p134
aS'www.twitter.com/cdixon'
p135
aS'www.a16z.com/2015/11/23/a16z-podcast-the-future-of-food/'
p136
aS'www.medium.com/@cdixon/lessons-from-the-pc-video-game-industry-3350bb7713de'
p137
aS'www.a16z.com/2015/11/13/why-companies-fail-the-state-of-venture-capital-and-artificial-intelligence/'
p138
aS'www.a16z.files.wordpress.com/2015/12/chris_dixon_square.jpg?w=400&h=400&crop=1'
p139
aS'www.a16z.com/2015/12/21/a16z-podcast-writing-a-new-language-of-storytelling-with-virtual-reality/'
p140
aS'www.a16z.com/2015/09/25/a16z-podcast-advertising-vs-micropayments-in-the-age-of-ad-blockers/'
p141
aS'www.a16z.com/2012/02/29/lies-that-losers-tell/'
p142
aS'www.a16z.com/2015/04/22/ted-ullyot-policy-regulatory-affairs/'
p143
aS'www.a16z.com/tag/performance-science-tech/'
p144
aS'www.a16z.com/2014/02/14/why-there-will-never-be-another-redhat-the-economics-of-open-source/'
p145
aS'www.a16z.com/2014/05/27/wall-street-believes-in-saas-companies/'
p146
aS'www.a16z.com/tag/sports-x-tech/'
p147
aS'www.a16z.com/2010/05/14/why-startups-should-train-their-people/'
p148
aS'www.a16z.com/2014/05/02/a16z-podcast-demystifying-venture-capital/'
p149
aS'www.a16z.com/2014/11/14/a16z-podcast-sports-tech-and-what-we-can-all-learn-from-the-latest-performance-science/'
p150
aS'www.a16z.com/2013/12/18/the-shana-fisher-competitive-advantage/'
p151
aS'www.a16z.com/tag/investing/'
p152
aS'www.a16z.com/tag/raiders-need-some-help/'
p153
aS'www.a16z.com/tag/super-bowl/'
p154
aS'www.a16z.com/tag/nfl/'
p155
aS'www.a16z.com/2015/05/14/good-bubbles-bad-bubbles-and-where-unicorns-come-from/'
p156
aS'www.image-net.org/challenges/LSVRC/2015/'
p157
aS'www.cdixon.org/2015/03/24/improbable-enabling-the-development-of-large-scale-simulated-worlds/'
p158
aS'www.a16z.com/tag/wall-street/'
p159
aS'www.code.google.com/archive/p/word2vec/'
p160
aS'www.a16z.com/2010/07/13/how-we-picked-our-first-cloud-investment/'
p161
aS'www.a16z.com/tag/vr/'
p162
aS'www.spectrum.ieee.org/automaton/robotics/industrial-robots/toyota-to-invest-1-billion-in-ai-and-robotics-rd'
p163
aS'http://www.amazon.com/Amazon-SK705DI-Echo/dp/B00X4WHP5E'
p164
aS'www.a16z.com/2014/10/14/what-all-the-recent-tech-company-splits-say-about-the-future-of-cloud-computing/'
p165
aS'www.a16z.com/tag/tech-trends/'
p166
aS'http://www.wired.com/2014/10/future-of-artificial-intelligence/'
p167
aS'www.a16z.com/tag/moores-law/'
p168
aS'www.gizmodo.com/google-photos-hands-on-so-good-im-creeped-out-1707566376'
p169
aS'http://www.airware.com/'
p170
aS'www.amplab.cs.berkeley.edu/projects/spark-lightning-fast-cluster-computing/'
p171
aS'www.en.wikipedia.org/wiki/Uncanny_valley'
p172
aS'http://www.nytimes.com/2012/06/26/technology/in-a-big-network-of-computers-evidence-of-machine-learning.html?pagewanted=all'
p173
aS'www.medium.com/@magicsilicon/how-the-soc-is-displacing-the-cpu-49bc7503edab#.84r1hymkb'
p174
aS'www.ben-evans.com/benedictevans/2014/10/28/presentation-mobile-is-eating-the-world'
p175
aS'www.twitter.com/cdixon/status/662836035508940800'
p176
aS'www.nest.com/thermostat/meet-nest-thermostat/'
p177
aS'www.oculus.com/en-us/rift/'
p178
aS'www.technologyreview.com/s/544421/googles-quantum-dream-machine/'
p179
aS'www.en.wikipedia.org/wiki/Artificial_neural_network#History'
p180
aS'www.mattturck.com/2016/01/04/the-power-of-data-network-effects/'
p181
aS'www.raspberrypi.org/blog/raspberry-pi-zero/'
p182
aS'www.tinyclouds.org/colorize/'
p183
aS'www.nest.com/camera/meet-nest-cam/'
p184
aS'www.youtube.com/watch?v=JKO9fEjNiio'
p185
aS'www.500ish.com/alexa-5f7924bffcf3#.ww0bq5dm1'
p186
aS'http://www.extremetech.com/gaming/201417-nvidias-2016-roadmap-shows-huge-performance-gains-from-upcoming-pascal-architecture'
p187
aS'www.loebner.net/Prizef/TuringArticle.html'
p188
aS'www.venturebeat.com/2016/02/08/oculus-vr-guru-john-carmack-leads-crucial-position-tracking-development-for-mobile-vr/'
p189
aS'http://www.pcworld.com/article/2996620/business/google-reports-strong-profit-says-its-rethinking-everything-around-machine-learning.html'
p190
aS'www.tensorflow.org/'
p191
aS'www.a16z.com/tag/ar/'
p192
aS'http://www.wired.com/2015/09/whatsapp-serves-900-million-users-50-engineers/'
p193
aS'www.twitter.com/cdixon/status/473221599189954562'
p194
aS'www.lytro.com/'
p195
aS'www.cdixon.org/2015/02/01/the-ai-startup-idea-maze/'
p196
aS'www.a16z.com/2015/01/20/the-rise-of-devops/'
p197
aS'www.foreignpolicy.com/2013/04/29/epiphanies-from-chris-anderson/'
p198
aS'www.a16z.com/2013/10/14/the-saas-manifesto-rethinking-the-business-of-enterprise-computing/'
p199
aS'http://www.cnet.com/roadshow/news/gm-new-team-electric-autonomous-cars/'
p200
aS'http://www.psmag.com/politics-and-law/cell-tower-climbers-die-78374'
p201
aS'www.en.wikipedia.org/wiki/Moore%27s_law'
p202
aS'www.a16z.com/2015/01/22/virtual-reality/'
p203
aS'http://www.wired.com/2015/08/how-facebook-m-works/'
p204
aS'www.a16z.com/2011/06/17/debating-the-tech-bubble-with-steve-blank-part-i/'
p205
aS'http://www.nytimes.com/2016/01/07/technology/on-display-at-ces-tech-ideas-in-their-awkward-adolescence.html?_r=0'
p206
aS'http://www.magicleap.com/#/home'
p207
aS'http://www.bloomberg.com/features/2015-george-hotz-self-driving-car/'
p208
aS'www.en.wikipedia.org/wiki/National_Science_Foundation_Network'
p209
aS'www.qz.com/611026/amazon-echo-is-a-sleeper-hit-and-the-rest-of-america-is-about-find-out-about-it-for-the-first-time/'
p210
aS'www.htcvive.com/us/'
p211
aS'www.deeplearning.net/software/theano/'
p212
aS'www.makezine.com/2015/04/01/esp8266-5-microcontroller-wi-fi-now-arduino-compatible/'
p213
aS'www.hadoop.apache.org/'
p214
aS'www.google.com/atap/project-tango/'
p215
aS'www.blog.learningbyshipping.com/'
p216
aS'www.a16z.com/2016/01/08/a16z-podcast-harnessing-the-devops-movement-dont-go-chasing-waterfalls/'
p217
aS'www.a16z.com/2016/01/07/a16z-podcast-making-the-most-of-the-data-that-matters/'
p218
aS'www.a16z.com/2016/01/14/everlaw/'
p219
aS'www.medium.com/@stevesi/ces-2016-observations-for-product-people-1f36b8792679'
p220
aS'www.a16z.files.wordpress.com/2013/12/asset.jpg?w=400&h=400&crop=1'
p221
aS'www.medium.com/@stevesi/5-ways-to-compete-with-big-incumbents-21676740c75a'
p222
aS'http://www.linkedin.com/in/sinofsky'
p223
aS'www.a16z.com/2016/01/15/a16z-podcast-software-is-what-distinguishes-the-hardware-winners/'
p224
aS'www.twitter.com/bhorowitz'
p225
aS'www.a16z.com/2015/10/18/oprah-winfrey-belief/'
p226
aS'www.a16z.com/2015/09/29/medium-3/'
p227
aS'www.a16z.com/2016/01/20/a16z-podcast-the-fundamentals-of-security-and-the-story-of-taniums-growth/'
p228
aS'www.a16z.files.wordpress.com/2013/12/asset1380408900.jpg?w=400&h=400&crop=1'
p229
aS'www.a16z.com/2015/11/13/high-output-management/'
p230
aS'www.amazon.com/Hard-Thing-About-Things-Building/dp/0062273205/'
p231
aS'www.a16z.com/2015/09/28/the-man-who-built-silicon-valley-a-tribute-to-andy-grove/'
p232
aS'www.a16z.com/2016/01/04/a16z-podcast-mellody-hobson-and-ben-horowitz-talk-investing-career-and-star-wars/'
p233
aVwww.a16z.com/#
p234
aS'www.a16z.com/2015/12/18/16-mobile-theses/'
p235
aS'www.ben-evans.com/benedictevans/2015/11/7/mobile-ecosystems-and-the-death-of-pcs'
p236
aS'www.ben-evans.com/benedictevans/2015/11/24/tv-mobile-and-the-living-room'
p237
aS'www.ben-evans.com/#newsletter'
p238
aS'www.ben-evans.com/'
p239
aS'www.ben-evans.com/benedictevans/2016/1/31/lists-are-the-new-search'
p240
aS'www.a16z.files.wordpress.com/2014/04/benedict4.jpg?w=400&h=400&crop=1'
p241
aS'www.twitter.com/BenedictEvans'
p242
aS'www.a16z.com/2015/10/22/after-the-smartphone/'
p243
aS'www.studyedge.com/'
p244
aS'www.minomonsters.com/'
p245
aS'www.cohodata.com'
p246
aS'www.healthsherpa.com/'
p247
aS'www.forwardnetworks.com'
p248
aS'www.stackoverflow.com/'
p249
aS'www.teespring.com'
p250
aS'http://www.letote.com/'
p251
aS'www.offerupnow.com'
p252
aS'www.actifio.com'
p253
aS'www.mayvenn.com'
p254
aS'www.coinbase.com'
p255
aS'www.julep.com'
p256
aS'www.keychainlogistics.com'
p257
aS'www.gooddata.com'
p258
aS'www.github.com'
p259
aS'www.fanaticsinc.com'
p260
aS'www.priceonomics.com/'
p261
aS'www.instartlogic.com'
p262
aS'www.slack.com/'
p263
aS'www.switch.co'
p264
aS'www.samsara.com'
p265
aS'www.experiment.com/'
p266
aS'http://www.joinkoru.com/'
p267
aS'www.quirky.com'
p268
aS'http://www.8tracks.com'
p269
aS'www.makeschool.com'
p270
aS'www.pixlee.com'
p271
aS'www.tikl.mobi'
p272
aS'www.point.com'
p273
aS'www.quantifind.com/'
p274
aS'http://www.oculusvr.com'
p275
aS'www.tilt.com/'
p276
aS'www.a16z.com/portfolio/seed/'
p277
aS'www.proven.com'
p278
aS'www.instacart.com'
p279
aS'www.gitstar.com/'
p280
aS'www.coreos.com/'
p281
aS'http://www.swiftype.com'
p282
aS'www.facebook.com'
p283
aS'www.getable.com'
p284
aS'www.opengov.com/'
p285
aS'www.enjoytech.com'
p286
aS'www.crowdmed.com'
p287
aS'http://www.gotenna.com'
p288
aS'www.benchling.com/'
p289
aS'http://www.elasticbox.com'
p290
aS'www.subledger.com/'
p291
aS'www.lyft.me'
p292
aS'www.distelli.com'
p293
aS'www.mattermark.com/'
p294
aS'www.nationbuilder.com'
p295
aS'www.yesgraph.com/'
p296
aS'http://www.toptal.com/'
p297
aS'http://www.wemash.com/'
p298
aS'www.pinterest.com'
p299
aS'www.cumulusnetworks.com'
p300
aS'www.onshape.com'
p301
aS'http://www.granular.ag'
p302
aS'www.cyngn.com'
p303
aS'http://www.zenefits.com'
p304
aS'www.talko.com'
p305
aS'www.everlaw.com'
p306
aS'www.digitalocean.com'
p307
aS'www.twitter.com'
p308
aS'www.haloneuro.com/'
p309
aS'www.genius.com/'
p310
aS'www.kamcord.com'
p311
aS'http://www.twoxar.com/'
p312
aS'http://www.glowing.com'
p313
aS'http://www.alation.com'
p314
aS'www.txn.com'
p315
aS'www.illumio.com'
p316
aS'www.maxta.com'
p317
aS'www.bellycard.com'
p318
aS'http://www.liketwice.com'
p319
aS'www.fusionio.com'
p320
aS'http://www.databricks.com'
p321
aS'www.learnup.me'
p322
aS'www.premise.is'
p323
aS'www.thirdlove.com'
p324
aS'http://www.shoptiques.com'
p325
aS'www.envoy.co'
p326
aS'www.platfora.com'
p327
aS'www.tindie.com/'
p328
aS'www.datagravity.com'
p329
aS'www.dwolla.com'
p330
aS'www.openbay.com/'
p331
aS'www.blendlabsinc.com/'
p332
aS'www.mixpanel.com'
p333
aS'www.lockitron.com/'
p334
aS'www.jumio.com'
p335
aS'www.apropose.com/'
p336
aS'www.keybase.io'
p337
aS'http://www.transferwise.com'
p338
aS'www.pagerduty.com'
p339
aS'www.skyd.io/'
p340
aS'www.flux.io'
p341
aS'www.bromium.com'
p342
aS'www.ifttt.com'
p343
aS'www.urbit.org'
p344
aS'www.tinyco.com'
p345
aS'www.foursquare.com'
p346
aS'http://www.doctorondemand.com'
p347
aS'www.ringly.com/'
p348
aS'www.sigopt.com'
p349
aS'www.affirm.com'
p350
aS'www.getlocalmotion.com'
p351
aS'http://www.tipbit.com'
p352
aS'www.matternet.us#sthash.Wj864W8c.dpuf'
p353
aS'http://www.littleborroweddress.com/'
p354
aS'www.soha.io'
p355
aS'www.joinhonor.com'
p356
aS'www.ubiome.com/'
p357
aS'http://www.oration.com/'
p358
aS'www.itsoninc.com'
p359
aS'http://www.highfive.com/'
p360
aS'www.eventley.com'
p361
aS'www.lookout.com'
p362
aS'http://www.optimizely.com'
p363
aS'www.udacity.com'
p364
aS'www.tradeblock.com/'
p365
aS'http://www.artillery.com'
p366
aS'http://www.mediaspike.com'
p367
aS'http://www.walkerandcompany.com'
p368
aS'www.brkt.com/'
p369
aS'http://www.mesosphere.io'
p370
aS'www.snaplogic.com'
p371
aS'www.skout.com'
p372
aS'www.socratic.org/'
p373
aS'www.asana.com'
p374
aS'http://www.groupon.com'
p375
aS'http://www.dollarshaveclub.com'
p376
aS'http://www.thync.com'
p377
aS'www.mori.com'
p378
aS'www.findlineinc.com/'
p379
aS'www.bu.mp'
p380
aS'www.tachyonnexus.com/'
p381
aS'www.boku.com'
p382
aS'www.signalfx.com'
p383
aS'www.shoedazzle.com'
p384
aS'http://www.signifyd.com'
p385
aS'www.fiftythree.com'
p386
aS'www.jawbone.com'
p387
aS'www.nicira.com'
p388
aS'www.witheve.com/'
p389
aS'www.leaptransit.com/'
p390
aS'http://www.spinnakr.com'
p391
aS'www.cazena.com'
p392
aS'www.blockspring.com'
p393
aS'www.yourmechanic.com'
p394
aS'www.puddle.com/'
p395
aS'www.infer.com/'
p396
aS'www.airbnb.com'
p397
aS'http://www.learnsprout.com'
p398
aS'http://www.soylent.com'
p399
aS'www.installmonetizer.com'
p400
aS'www.nuzzel.com/'
p401
aS'http://www.redhotlabs.com'
p402
aS'http://www.sookasa.com'
p403
aS'http://www.altschool.com'
p404
aS'http://www.ubeam.com'
p405
aS'http://www.toutapp.com/'
p406
aS'www.pro.com/'
p407
aS'www.gainspeed.com'
p408
aS'www.box.net'
p409
aS'www.skype.com'
p410
aS'www.radiant-entertainment.com'
p411
aS'http://www.humandx.org'
p412
aS'www.plivo.com/'
p413
aS'http://www.arimo.com'
p414
aS'www.okta.com'
p415
aS'www.rockmelt.com'
p416
aS'www.a16z.com/portfolio/venture-growth/'
p417
aS'www.hem.com'
p418
aS'www.uxpin.com/'
p419
aS'www.pindropsecurity.com'
p420
aS'http://www.messageme.com'
p421
aS'www.robinhood.com'
p422
aS'http://www.galxyz.com'
p423
aS'http://www.omadahealth.com'
p424
aS'www.airware.com'
p425
aS'www.kno.com'
p426
aS'www.meetearnest.com'
p427
aS'www.apptio.com'
p428
aS'www.bluebox.com'
p429
aS'www.factual.com'
p430
aS'http://www.ridecell.com'
p431
aS'http://www.dogvacay.com'
p432
aS'www.flightcar.com/'
p433
aS'www.magnet.com'
p434
aS'www.medisas.com/'
p435
aS'www.mightyhive.com'
p436
aS'www.cask.co/'
p437
aS'www.shapeways.com'
p438
aS'www.screenhero.com/'
p439
aS'www.lytro.com'
p440
aS'www.rainforestqa.com'
p441
aS'www.usermind.com'
p442
aS'www.zulily.com'
p443
aS'http://www.clearstorydata.com/'
p444
aS'http://www.zumper.com'
p445
aS'http://www.yardclub.com/'
p446
aS'www.meteor.com'
p447
aS'http://www.tanium.com/'
p448
aS'http://www.buzzfeed.com/'
p449
aS'http://www.improbable.io'
p450
aS'www.ciphercloud.com'
p451
aS'http://www.lendup.com'
p452
aS'http://www.kitchit.com'
p453
aS'www.producthunt.com'
p454
aS'www.humanapi.co/features'
p455
aS'http://www.percolata.com/'
p456
aS'http://www.atavist.com'
p457
aS'www.anki.com'
p458
aS'www.magicleap.com'
p459
aS'www.tidemark.net'
p460
aS'www.500px.com'
p461
aS'www.solvebio.com/'
p462
aS'http://www.bloomnation.com'
p463
aS'www.oncorps.org/'
p464
aS'www.capriza.com'
p465
aS'www.teleport.org/'
p466
aS'www.boostedboards.com/'
p467
aS'www.21.co/'
p468
aS'www.runscope.com/'
p469
aS'www.imgur.com/'
p470
aS'www.wearableintelligence.com/'
p471
aS'http://www.apcera.com/'
p472
aVwww.a16z.com/mailto:a16z@theoutcastagency.com
p473
aVwww.a16z.com/mailto:collegetalent@a16z.com
p474
aVwww.a16z.com/mailto:talent@a16z.com
p475
aVwww.a16z.com/mailto:businessplans@a16z.com
p476
aS'www.portfoliojobs.a16z.com/'
p477
aS'www.stratechery.com/2016/xiaomis-struggles-samsung-hardware-rumors/'
p478
aS'www.paulromer.net/economic-growth/'
p479
aS'http://www.bloomberg.com/news/articles/2015-11-10/why-alibaba-is-having-singles-day-in-beijing-for-first-time'
p480
aS'www.techcrunch.com/2015/08/21/how-coursera-cracked-the-chinese-market/'
p481
aS'www.sites.tcs.com/blogs/digital/thoughts-combinatorial-innovation/'
p482
aS'www.blogs.wsj.com/chinarealtime/2013/01/25/shanghais-newest-luxury-item-the-license-plate/'
p483
aS'http://www.bloomberg.com/news/articles/2016-01-18/china-hits-record-37-billion-in-vc-deals-in-challenge-to-u-s--ijkim2fs'
p484
aS'www.medium.com/notes-essays-cs183c-technology-enabled-blitzscalin'
p485
aS'www.twitter.com/PDChinese/status/651434718634885121'
p486
aS'www.a16z.com/tag/o2o/'
p487
aS'www.usa.chinadaily.com.cn/epaper/2015-12/18/content_22743652.htm'
p488
aS'www.english.caixin.com/2016-01-26/100904037.html'
p489
aS'www.investor.fb.com/secfiling.cfm?filingID=1326801-16-43'
p490
aS'http://www.wired.com/2013/04/present-shock-rushkoff-r-u-sirius/'
p491
aS'www.news.xinhuanet.com/english/china/2014-03/16/c_133190495.htm'
p492
aS'www.ir.cmcm.com/2015-11-17-Cheetah-Mobile-Announces-Third-Quarter-2015-Unaudited-Financial-Results'
p493
aS'http://www.scmp.com/lifestyle/technology/article/1740029/merger-chinese-online-publishing-sites-will-create-chinas'
p494
aS'www.a16z.com/2013/12/18/so-you-want-to-compete-against-amazon/'
p495
aS'www.a16z.com/tag/e-commerce-and-m-commerce/'
p496
aS'http://www.chinamobileltd.com/en/ir/operation.php'
p497
aS'http://www.saos.biz/why-taobao-succeeds-in-china-unlike-ebay/'
p498
aS'www.twitter.com/facklernyt/status/686396289257357312'
p499
aS'www.usa.chinadaily.com.cn/epaper/2015-12/17/content_22734492.htm'
p500
aS'www.a16z.com/2015/10/02/alex_rampell/'
p501
aS'http://www.newyorker.com/tech/elements/in-silicon-valley-now-its-almost-always-winner-takes-all'
p502
aS'www.a16z.com/tag/regional-innovation/'
p503
aS'http://www.nytimes.com/2016/01/27/business/international/china-economy-data-statistics-inquiry.html'
p504
aS'http://www.forbes.com/sites/valleyvoices/2016/02/05/four-ways-you-need-to-rethink-innovation-and-competition-from-china/'
p505
aS'www.a16z.com/tag/andy-grove/'
p506
aS'www.google.com/publicdata/explore?ds=kf7tgg1uo9ude_&met_y=population&idim=county:06075&hl=en&dl=en'
p507
aS'http://www.wired.com/2015/09/silicon-valley-success-goes-fastest-not-first/'
p508
aS'http://www.nytimes.com/2015/12/20/arts/television/streaming-tv-isnt-just-a-new-way-to-watch-its-a-new-genre.html'
p509
aS'www.pando.com/2012/08/30/unleashing-the-crocodile-what-alibabas-jack-ma-can-teach-american-entrepreneurs/'
p510
aS'http://www.china.org.cn/business/2015-06/09/content_35775291.htm'
p511
aS'www.techcrunch.com/2016/01/24/the-end-of-the-big-venture-formula/'
p512
aS'www.a16z.com/tag/mobile/'
p513
aS'http://www.theverge.com/2016/1/11/10749282/didi-kuaidi-rideshare-billion-rides-2015-china-competitor'
p514
aS'http://www.usatoday.com/story/news/nation-now/2015/10/09/thousands-stuck-traffic-jam-beijing-china-highway/73644000/'
p515
aS'http://www.wired.com/2013/02/moonshots-matter-heres-how-to-make-them-happen/'
p516
aS'http://www.tencent.com/en-us/content/at/2015/attachments/20151110.pdf'
p517
aS'www.fortune.com/2015/11/28/black-friday-sales-2/'
p518
aS'www.humanprogress.org/story/2246'
p519
aS'www.medium.com/@evdemon/the-coming-out-of-chinas-tech-companies-part-1-71bb26070edf'
p520
aS'www.techcrunch.com/2010/08/07/why-online2offline-commerce-is-a-trillion-dollar-opportunity/'
p521
aS'http://www.forbes.com/sites/china/2010/09/12/how-ebay-failed-in-china/'
p522
aS'http://www.bloomberg.com/news/articles/2015-09-25/china-capital-outflows-hit-record-in-august-on-yuan-weakness'
p523
aS'www.a16z.com/2015/07/01/palimpsest-culture-tech-iran/'
p524
aS'http://www.ibtimes.com/beating-chinas-car-license-plate-lottery-system-how-some-are-getting-around-beijings-1497646'
p525
aS'http://www.theatlantic.com/photo/2013/08/26-years-of-growth-shanghai-then-and-now/100569/'
p526
aS'www.a16z.com/2015/09/04/dan-boneh-a16z-professor-in-residence/'
p527
aS'www.a16z.com/tag/book-launches/'
p528
aS'www.a16z.com/2014/09/30/a16z-podcast-creating-new-silicon-valleys/'
p529
aS'www.a16z.com/tag/open-v-closed/'
p530
aS'www.a16z.com/tag/tech-is-global/'
p531
aS'www.a16z.com/tag/future-of-work/'
p532
aS'www.a16z.com/2015/04/30/a16z-podcast-software-and-overcoming-the-randomness-of-birthplace/'
p533
aS'http://www.amazon.com/The-Industries-Future-Alec-Ross/dp/1476753652'
p534
aS'www.a16z.com/tag/future-of-cities/'
p535
aS'www.a16z.com/2015/02/18/a16z-podcast-the-marketplace-rules/'
p536
aS'http://www.linkedin.com/in/anuhariharan'
p537
aS'www.a16z.com/tag/jugaad-innovation/'
p538
aS'www.a16z.com/tag/logistics/'
p539
aS'www.stratechery.com/2015/xiaomis-ambition/'
p540
aS'http://www.amazon.com/Little-Rice-Smartphones-Xiaomi-Chinese/dp/0990976327'
p541
aS'www.a16z.com/2012/11/15/e-commerce-2-0/'
p542
aS'www.a16z.com/2014/06/24/how-government-drives-innovation-a-conversation-with-former-deputy-secretary-of-defense-ashton-carter/'
p543
aS'www.a16z.com/tag/reverse-innovation/'
p544
aS'www.a16z.com/2011/12/07/fab-fore-2/'
p545
aS'www.a16z.com/tag/podcasts/'
p546
aS'www.a16z.com/tag/india/'
p547
aS'www.a16z.com/2015/06/24/a16z-podcast-a-conversation-with-the-inventor-of-spark/'
p548
aS'www.a16z.com/2015/01/22/machine-learning-big-data/'
p549
aS'www.a16z.com/2016/01/06/a16z-podcast-what-software-developers-and-therefore-every-company-need-2/'
p550
aS'www.a16z.com/2015/06/04/distributed-computing-simulations/'
p551
aS'www.a16z.com/2015/10/12/pushing-the-bounds-of-security-machine-learning-virtual-reality-and-more/'
p552
aS'www.a16z.com/author/vijay-pande/'
p553
aS'www.a16z.com/2015/05/01/a16z-podcast-making-sense-of-big-data-machine-learning-and-deep-learning/'
p554
aS'www.a16z.com/author/peter-levine/'
p555
aS'www.a16z.com/2015/07/23/a16z-podcast-big-data-goes-really-big/'
p556
aS'www.ben-evans.com/benedictevans/2015/3/24/the-state-of-messaging'
p557
aS'www.a16z.com/2015/04/03/a16z-podcast-messaging-is-the-medium/'
p558
aS'www.a16z.com/2016/01/13/nobody-discusses-work-software-outside-of-work-and-then-theres-slack/'
p559
aS'www.ben-evans.com/benedictevans/2015/5/14/mobile-first'
p560
aS'www.a16z.com/2015/11/11/blockchain-bitcoin-fintech/'
p561
aS'www.a16z.com/author/alex-rampell/'
p562
aS'www.a16z.com/2016/01/30/reinventing-insurance/'
p563
aS'www.a16z.com/2015/11/17/a16z-podcast-fintech-from-the-worlds-financial-capital-london/'
p564
aS'www.a16z.com/2016/02/03/the-future-of-money-and-monetization/'
p565
aS'www.a16z.com/2015/07/09/a16z-podcast-latinos-and-the-tech-economy-bridging-the-gaps/'
p566
aS'www.a16z.com/2015/07/21/innovation-regulation-policy/'
p567
aS'www.a16z.com/2015/09/17/a16z-podcast-making-the-case-for-permissionless-innovation/'
p568
aS'www.a16z.com/2015/11/03/policy-tech-issues-whirl/'
p569
aS'www.a16z.com/2015/04/24/government-startups-innovation-ash-carter/'
p570
aS'www.a16z.com/author/adrian-fenty/'
p571
aS'www.a16z.com/author/ted-ullyot/'
p572
aS'www.a16z.com/2015/07/10/a16z-podcast-the-changing-relationship-between-tech-and-government/'
p573
aS'www.a16z.com/2015/08/05/a16z-podcast-a-copernican-update-in-tech-the-smartphone-is-the-center/'
p574
aS'www.a16z.com/2015/07/28/a16z-podcast-why-every-business-is-in-the-data-business/'
p575
aS'www.a16z.com/2014/08/11/the-datacenter-of-the-future/'
p576
aS'www.a16z.com/2015/10/26/dell-emc-vmware/'
p577
aS'www.a16z.com/author/irvin-chan/'
p578
aS'www.a16z.com/2015/10/16/dell-emc-why-the-python-just-ate-the-cow/'
p579
aS'www.a16z.com/2015/04/08/aggregation-is-the-new-virtualization-how-microservices-are-taming-distributed-computing/'
p580
aS'www.a16z.com/author/vishal-amin/'
p581
aS'www.a16z.com/2015/01/22/containers/'
p582
aS'www.a16z.com/author/dan-boneh/'
p583
aS'www.a16z.com/2015/02/15/16-ways-to-increase-entrepreneurship-and-competitiveness-in-the-u-s/'
p584
aS'www.a16z.com/2015/09/07/a16z-podcast-code-and-culture-in-south-central-los-angeles/'
p585
aS'www.a16z.com/2016/02/02/originals/'
p586
aS'www.a16z.com/2015/03/13/a16z-podcast-a-full-stack-approach-to-education/'
p587
aS'www.a16z.com/author/lars-dalgaard/'
p588
aS'www.a16z.com/2015/07/29/blockspring/'
p589
aS'www.a16z.com/2014/12/08/a16z-podcast-if-coding-is-the-new-literacy-how-can-more-people-code/'
p590
aS'www.a16z.com/author/balaji-srinivasan/'
p591
aS'www.a16z.com/2015/07/30/these-girls-code/'
p592
aS'www.a16z.com/2015/01/19/a16z-podcast-coding-as-literacy/'
p593
aS'www.a16z.com/2016/01/05/a16z-podcast-the-future-of-software-development/'
p594
aS'www.a16z.com/2015/10/14/a16z-podcast-amplab-the-power-of-open-source-and-the-future-of-systems-software/'
p595
aS'www.a16z.com/2015/07/27/native-bitcoin-apps-open-source-developer-hearn/'
p596
aS'www.a16z.com/2015/09/02/a16z-podcast-hard-forks-hard-choices-for-bitcoin/'
p597
aS'www.medium.com/@cdixon/keybase-bringing-public-key-cryptography-to-mainstream-users-16a9379dddda'
p598
aS'www.a16z.com/2015/08/25/a16z-podcast-what-your-ride-shares-with-your-smartphone-when-cars-and-technology-collide/'
p599
aS'www.a16z.com/2015/12/14/telepresence/'
p600
aS'www.cdixon.org/2015/01/15/skydio/'
p601
aS'www.a16z.com/2015/11/15/artificial-intelligence/'
p602
aS'www.a16z.com/2015/01/12/internet-of-things-connected-home/'
p603
aS'www.a16z.com/2015/08/28/a16z-podcast-talking-robots-and-humans-with-nyts-john-markoff/'
p604
aS'www.a16z.com/2014/05/13/understanding-saas-valuation-primer/'
p605
aS'www.a16z.com/2015/06/29/mass-saas/'
p606
aS'www.a16z.com/author/scott-kupor/'
p607
aS'www.a16z.com/2015/04/23/how-one-startup-went-from-being-banned-by-regulators-to-being-open-for-business/'
p608
aS'www.a16z.com/2015/11/20/ipos-private-public-valuations/'
p609
aS'www.a16z.com/author/nicole-irvin/'
p610
aS'www.a16z.com/2015/05/15/a16z-podcast-why-saas-revenue-is-worth-more-than-traditional-software-sales/'
p611
aS'www.a16z.com/2015/09/24/onshape/'
p612
aS'www.a16z.com/2015/06/03/a16z-podcast-tech-trends-changing-gaming/'
p613
aS'www.a16z.com/2015/01/27/a16z-podcast-vr-goes-pro/'
p614
aS'www.a16z.com/2015/12/15/heres-what-we-need-to-do-to-get-vr-to-take-off/'
p615
aS'www.a16z.com/2015/12/17/a16z-podcast-the-present-state-and-future-possibility-of-virtual-reality/'
p616
aS'www.a16z.com/2015/08/20/a16z-podcast-techs-biggest-ideas-and-how-they-take-hold/'
p617
aS'www.a16z.com/author/saku-panditharatne/'
p618
aS'www.a16z.com/author/kyle-russell/'
p619
aS'www.a16z.com/2015/11/24/data-down-on-the-farm/'
p620
aS'www.a16z.com/2015/01/22/internet-of-things/'
p621
aS'www.a16z.com/2014/12/11/better-interfaces-for-programming-the-internet-of-things/'
p622
aS'www.a16z.com/2015/01/14/putting-the-internet-to-work/'
p623
aS'www.a16z.com/author/scott-weiss/'
p624
aS'www.a16z.com/2015/01/08/a16z-podcast-the-technology-is-ready-so-where-is-the-internet-of-things/'
p625
aS'www.a16z.com/2014/09/15/a16z-podcast-building-marketplaces-with-the-power-of-community/'
p626
aS'www.a16z.com/2015/01/22/online-marketplaces/'
p627
aS'www.a16z.com/2015/06/19/who-do-you-trust/'
p628
aS'www.a16z.com/2015/02/24/managing-tensions-in-online-marketplaces/'
p629
aS'www.medium.com/@cdixon/soylent-2-0-ab43d6d039f6'
p630
aS'www.a16z.com/2015/12/03/nootropics/'
p631
aS'www.cdixon.org/2015/01/14/soylent/'
p632
aS'www.a16z.com/2015/11/25/a16z-podcast-the-data-science-of-food-and-taste/'
p633
aS'www.blog.pmarca.com/2014/01/22/why-bitcoin-matters/'
p634
aS'www.a16z.com/2015/08/07/a16z-podcast-bitcoin-greece-and-whats-next-for-cryptocurrency/'
p635
aS'www.cdixon.org/2013/12/31/why-im-interested-in-bitcoin/'
p636
aS'www.a16z.com/2015/07/13/a16z-podcast-bitcoins-growing-pains-and-possibilities/'
p637
aS'www.a16z.com/2015/08/17/a16z-podcast-establishing-online-identity-is-hard-it-shouldnt-be/'
p638
aS'www.a16z.com/2015/05/08/a16z-podcast-making-security-more-useable/'
p639
aS'www.a16z.com/2015/04/19/a16z-podcast-how-hacks-happen-lets-just-say-mistakes-have-been-made/'
p640
aS'www.a16z.com/2015/11/18/bio-fund/'
p641
aS'www.a16z.com/2015/01/07/supernovas-and-novel-insight-where-machine-learning-is-headed-next/'
p642
aS'www.a16z.com/2015/07/26/bio-cs/'
p643
aS'www.a16z.com/2015/01/22/digital-health/'
p644
aS'www.a16z.com/2015/04/15/benchling/'
p645
aS'www.a16z.com/2015/04/10/a16z-podcast-tackling-senior-care-with-help-from-technology/'
p646
aS'www.a16z.com/2014/10/28/mobile-is-eating-the-world/'
p647
aS'www.a16z.com/2015/06/19/mobile-it-changes-everything/'
p648
aS'www.a16z.com/2015/05/12/a16z-podcast-verizon-plus-aol-why-the-short-answer-is-mobile/'
p649
aS'www.a16z.com/2015/01/22/insurance/'
p650
aS'www.twitter.com/withfries2'
p651
aS'www.a16z.com/2014/09/09/a16z-podcast-apple-takes-on-payments-and-your-wrist/'
p652
aS'www.facebook.com/frank.chen'
p653
aS'http://www.quora.com/What-was-the-average-ACV-Annual-Contract-Value-for-the-fastest-growing-enterprise-software-SaaS-companies-in-their-first-year-or-two-of-operations'
p654
aS'www.a16z.com/tag/advice-and-how-to/'
p655
aS'www.a16z.com/tag/jeff-jordan/'
p656
aS'www.a16z.com/tag/listicles/'
p657
aS'www.a16z.com/tag/founders/'
p658
aS'www.abovethecrowd.com/2012/09/04/the-dangerous-seduction-of-the-lifetime-value-ltv-formula/'
p659
aS'www.a16z.com/tag/frank-chen/'
p660
aS'www.a16z.com/tag/driving-with-data/'
p661
aS'www.avc.com/2011/12/burn-rate/'
p662
aS'www.nautil.us/issue/19/illusions/five-ways-to-lie-with-charts'
p663
aS'www.a16z.com/2015/02/27/16-common-questions-about-fundraising/'
p664
aS'www.a16z.com/tag/fundraising/'
p665
aS'www.a16z.com/tag/apparently-all-our-listicles-are-16/'
p666
aS'www.a16z.com/tag/regulation/'
p667
aS'www.a16z.com/tag/gig-economy-sharing-economy/'
p668
aS'www.yankeesabralimey.tumblr.com/post/127563634610/take-ownership-of-your-metrics'
p669
aS'www.twitter.com/treehcapital/status/636219756350017536'
p670
aS'http://www.economist.com/node/12446567'
p671
aS'www.a16z.com/tag/market-sizing/'
p672
aS'http://www.theatlantic.com/technology/archive/2012/10/dark-social-we-have-the-whole-history-of-the-web-wrong/263523/'
p673
aS'www.a16z.files.wordpress.com/2015/09/cumar.png'
p674
aS'www.a16z.com/2014/05/30/selling-saas-products-dont-sell-themselves/'
p675
aS'www.twitter.com/davidu/status/635151521508757504'
p676
aS'www.a16z.files.wordpress.com/2015/09/ar.png'
p677
aS'www.a16z.com/2015/12/30/our-top-listicles-of-2015/'
p678
aS'www.twitter.com/SuB8u/status/635315251030982657'
p679
aS'www.data.heapanalytics.com/how-to-lie-with-data-visualization/'
p680
aS'www.twitter.com/BenBajarin/status/635482255352139776'
p681
aS'www.quora.com/What-is-the-definitive-way-to-calculate-viral-coefficient-for-a-social-game'
p682
aS'www.gizmodo.com/how-to-lie-with-data-visualization-1563576606'
p683
aS'www.a16z.files.wordpress.com/2015/09/arpuexample.png'
p684
aS'www.a16z.com/2015/01/22/16-things/'
p685
aS'www.andrewchen.co/whats-your-viral-loop-understanding-the-engine-of-adoption/'
p686
aS'www.a16z.com/2014/09/05/why-amazon-has-no-profits-and-why-it-works/'
p687
aS'www.a16z.files.wordpress.com/2015/09/yaxistrunc.png'
p688
aS'www.hbr.org/2003/12/the-one-number-you-need-to-grow/ar/1'
p689
aS'www.flowingdata.com/2014/12/05/baseline-matters/'
p690
aS'www.en.wikipedia.org/wiki/Social_graph'
p691
aS'www.twitter.com/JoshConstine/status/635587744266227712'
p692
aS'www.platformed.info/virality-viral-growth-network-effects/'
p693
aS'www.a16z.files.wordpress.com/2015/09/cohortexample.png'
p694
aS'www.edge.org/response-detail/10755'
p695
aS'www.a16z.com/2011/07/19/when-employees-misinterpret-managers/'
p696
aS'www.mixpanel.com/'
p697
aS'www.gsl.mit.edu/media/programs/india-bms-summer-2013/materials/step_4_calculate_the_tam_---trepreneurship_101.pdf'
p698
aS'http://www.theatlantic.com/technology/archive/2013/06/revisiting-dark-social/276715/'
p699
aS'www.ben-evans.com/benedictevans/2015/2/28/market-size'
p700
aS'www.twitter.com/DShankar/status/634895598399827969'
p701
aS'www.a16z.com/2015/01/18/12-things-learned-from-chris-dixon-about-startups/'
p702
aS'www.a16z.com/tag/network-effects/'
p703
aS'www.thegongshow.tumblr.com/image/345941486'
p704
aS'www.a16z.files.wordpress.com/2015/11/6-newspaper-11-year-decline-for-daily-advertising-revenue-e1446495792345.png'
p705
aS'www.a16z.com/tag/announcements/'
p706
aS'www.medium.com/tweet-stormed/more-on-unbundling-and-rebundling-b6fcd669747d'
p707
aS'www.medium.com/tweet-stormed/the-flip-side-of-unbundling-4a95a591617f'
p708
aS'www.a16z.files.wordpress.com/2015/11/craigslist.jpg'
p709
aS'www.a16z.com/tag/wearables/'
p710
aS'www.a16z.com/tag/executive-leadership/'
p711
aS'www.a16z.com/2015/06/08/performance-data-and-the-babe-ruth-effect-in-venture-capital/'
p712
aS'www.recode.net/2015/09/29/the-oh-shit-moment-when-growth-stops/'
p713
aS'www.a16z.com/tag/benedict-evans/'
p714
aS'www.a16z.com/2014/03/06/a16z-podcast-the-rise-of-full-stack-startups/'
p715
aS'www.a16z.com/2014/03/26/a16z-podcast-searching-for-mobiles-own-pagerank/'
p716
aS'www.a16z.com/tag/chris-dixon/'
p717
aS'www.a16z.com/tag/corporate-development/'
p718
aS'www.a16z.com/2014/05/23/a16z-podcast-wwdc-and-io-gearing-up-for-the-apple-and-google-developer-parties/'
p719
aS'www.a16z.com/tag/connie-chan/'
p720
aS'www.a16z.com/2015/04/28/tech-ma-wheres-the-growth-investment/'
p721
aS'www.a16z.com/2015/06/11/a16z-podcast-dealing-with-corporate-dealmakers-when-to-talk-to-corp-dev/'
p722
aS'www.a16z.com/2014/09/26/valuation-this-is-the-advice-we-give-our-founders/'
p723
aS'www.a16z.com/2014/10/09/tech-more-undervalued-than-one-might-assume/'
p724
aS'www.twitter.com/jpm25'
p725
aS'http://www.linkedin.com/in/mcgurk'
p726
aS'www.a16z.com/2015/04/13/corp-dev-for-startups/'
p727
aS'www.twitter.com/MSMcDermid'
p728
aS'http://www.linkedin.com/in/stevemcdermid/'
p729
aS'www.a16z.com/2014/10/08/pmarca-tweetstorm-evidence-its-not-a-tech-bubble/'
p730
aS'www.a16z.com/2013/07/16/capital-market-climate-change/'
p731
aS'www.a16z.com/2011/03/24/bubble-trouble-i-dont-think-so/'
p732
aS'www.a16z.com/tag/jamie-mcgurk/'
p733
aS'http://www.linkedin.com/in/loftusj'
p734
aS'http://www.wired.com/2015/08/time-to-ditch-texting/'
p735
aS'www.a16z.com/2015/12/29/our-top-5-longreads-of-2015/'
p736
aS'www.a16z.com/author/leeann-caballero/'
p737
aS'www.a16z.com/author/john-m-jack/'
p738
aS'www.a16z.com/author/anna-soliveres/'
p739
aS'www.a16z.com/author/shannon-callahan/'
p740
aS'www.a16z.com/author/lauren-berson/'
p741
aS'www.a16z.com/author/amy-berliner/'
p742
aS'www.a16z.com/author/erin-winkler/'
p743
aS'www.a16z.com/author/nicole-conner/'
p744
aS'www.a16z.com/author/alyssa-del-bene/'
p745
aS'www.a16z.com/author/valentina-marzorati/'
p746
aS'www.a16z.com/author/margit-wennmachers/'
p747
aS'www.a16z.com/author/dave-jagoda/'
p748
aS'www.a16z.com/author/kindra-mason/'
p749
aS'www.a16z.com/author/matthew-colford/'
p750
aS'www.a16z.com/author/michelle-mundy/'
p751
aS'www.a16z.com/author/minerva-munoz/'
p752
aS'www.a16z.com/author/elizabeth-ocken/'
p753
aS'www.a16z.com/author/caitlin-roberson/'
p754
aS'www.a16z.com/author/stacy-damico/'
p755
aS'www.a16z.com/author/jennifer-konde/'
p756
aS'www.a16z.com/author/elizabeth-weil/'
p757
aS'www.a16z.com/author/laura-gravley/'
p758
aS'www.a16z.com/author/vivian-brooks/'
p759
aS'www.a16z.com/author/karina-sobieski/'
p760
aS'www.a16z.com/author/harry-wright/'
p761
aS'www.a16z.com/author/morgan-beller/'
p762
aS'www.a16z.com/author/mark-cranney/'
p763
aS'www.a16z.com/author/naithan-jones/'
p764
aS'www.a16z.com/author/molly-grace/'
p765
aS'www.a16z.com/author/marvin-zamora/'
p766
aS'www.a16z.com/author/jeff-stump/'
p767
aS'www.a16z.com/author/meredith-donahue/'
p768
aS'www.a16z.com/author/tina-ferguson/'
p769
aS'www.a16z.com/author/bill-krause/'
p770
aS'www.a16z.com/author/eric-thomas/'
p771
aS'www.a16z.com/author/jaimie-buss/'
p772
aS'www.a16z.com/author/amanda-mulay/'
p773
aS'www.a16z.com/author/lynn-rudolph/'
p774
aS'www.a16z.com/author/sharon-chang/'
p775
aS'www.a16z.com/author/mcpherson-moore/'
p776
aS'www.a16z.com/author/jessica-hansen/'
p777
aS'www.a16z.com/author/mahesh-iyer/'
p778
aS'www.a16z.com/author/erin-grody/'
p779
aS'www.a16z.com/author/jessica-peterson/'
p780
aS'www.a16z.com/author/ellen-tunoa/'
p781
aS'www.a16z.com/author/emily-graff/'
p782
aS'www.a16z.com/author/morgan-bender/'
p783
aS'www.a16z.com/author/arsho-avetian/'
p784
aS'www.a16z.com/author/juliet-pullis/'
p785
aS'www.a16z.com/author/robin-casey/'
p786
aS'www.a16z.com/author/tawny-holguin/'
p787
aS'www.a16z.com/author/erika-herrera/'
p788
aS'www.a16z.com/author/amy-kalokerinos/'
p789
aS'www.a16z.com/author/mark-mcandrew/'
p790
aS'www.a16z.com/author/luis-martinez/'
p791
aS'www.a16z.com/author/bart-dessaint/'
p792
aS'www.a16z.com/author/taylor-mcfadden/'
p793
aS'www.a16z.com/author/matt-oberhardt/'
p794
aS'www.a16z.com/author/caroline-horn/'
p795
aS'www.a16z.com/author/john-ofarrell/'
p796
aS'www.a16z.com/author/julie-johnson/'
p797
aS'www.a16z.com/author/kristina-graci-deluna/'
p798
aS'www.a16z.com/author/leila-abu-sharr/'
p799
aS'www.a16z.com/author/jennifer-zimmerer/'
p800
aS'www.a16z.com/author/matt-levy/'
p801
aS'www.a16z.com/author/lj-erwin/'
p802
aS'www.a16z.com/author/lisa-orr/'
p803
aS'www.a16z.com/author/megan-kristalyn/'
p804
aS'www.a16z.com/author/sunil-chokshi/'
p805
aS'www.a16z.com/author/austin-guzman/'
p806
aS'www.a16z.com/author/lawrence-summers/'
p807
aS'www.a16z.com/author/dalton-turay/'
p808
aS'www.a16z.com/author/ken-coleman/'
p809
aS'www.a16z.com/author/chris-lyons/'
p810
aS'www.a16z.com/author/shawn-conway/'
p811
aS'www.a16z.com/author/malinka-walaliyadde/'
p812
aS'www.a16z.com/author/gia-scinto/'
p813
aS'www.a16z.com/author/tyler-wilson/'
p814
aS'www.a16z.com/author/p-j-hasleton/'
p815
aS'www.a16z.com/author/robert-moreno/'
p816
aS'www.a16z.com/author/rod-johnson/'
p817
aS'www.a16z.com/author/spencer-rascoff/'
p818
aS'www.a16z.com/author/jose-guardado/'
p819
aS'www.a16z.com/author/daniel-chen/'
p820
aS'www.a16z.com/author/lisa-rosano/'
p821
aS'www.a16z.com/author/ryan-ward/'
p822
aS'www.a16z.com/author/grace-ellis/'
p823
aS'www.a16z.com/author/katie-hemmerling/'
p824
aS'www.a16z.com/author/parker-brown/'
p825
aS'www.a16z.com/author/marci-barbera/'
p826
aS'www.a16z.com/author/christina-zeidan/'
p827
aS'www.a16z.com/author/shana-fisher/'
p828
aS'www.a16z.com/author/laura-shores/'
p829
aS'www.a16z.com/author/alexis-lakes/'
p830
aS'www.a16z.com/author/nigel-robinson/'
p831
aS'www.a16z.com/author/brad-kern/'
p832
aS'www.a16z.com/author/kim-milosevich/'
p833
aS'www.a16z.com/2014/12/21/our-top-12-podcasts-of-2014/'
p834
aS'http://www.linkedin.com/in/mcopeland'
p835
aS'www.a16z.com/2013/10/27/banishing-gridlock-with-robot-cars/'
p836
aS'www.a16z.com/2014/09/22/how-one-silicon-valley-exec-landed-her-first-fortune-500-board-seat/'
p837
aS'www.twitter.com/MVC'
p838
aS'www.a16z.com/2015/12/31/our-top-16-podcasts-of-2015/'
p839
aS'www.a16z.com/2014/02/06/40-pound-calculators-the-birth-of-ethernet-and-a-100-billion-mistake-a-conversation-with-bill-krause/'
p840
aS'www.a16z.files.wordpress.com/2013/12/asset1380302975.jpg?w=400&h=400&crop=1'
p841
aS'www.a16z.com/2015/05/25/a16z-podcast-the-future-of-entertainment-and-what-we-can-all-learn-from-general-david-petraeus-and-the-olsen-twins/'
p842
aS'www.a16z.com/2015/06/18/marc-primack-conversation/'
p843
aS'www.medium.com/tweet-stormed/if-bubble-might-pop-then-4a873b679552'
p844
aS'www.twitter.com/pmarca'
p845
aS'www.twitter.com/smc90'
p846
aS'www.a16z.com/tag/media/'
p847
aS'www.a16z.com/2015/11/02/board-minutes/'
p848
aS'www.nymag.com/daily/intelligencer/2014/10/whats-behind-the-great-podcast-renaissance.html'
p849
aS'www.a16z.com/2015/11/08/lean-startups/'
p850
aS'http://www.fastcompany.com/3051714/fast-feed/product-hunt-pushes-into-podcast-discovery'
p851
aS'www.a16z.com/tag/marc-andreessen/'
p852
aS'www.a16z.com/tag/power-law/'
p853
aS'www.a16z.com/tag/interviews/'
p854
aS'www.a16z.com/tag/artificial-intelligence/'
p855
aS'www.a16z.com/tag/big-data/'
p856
aS'www.a16z.com/tag/natural-language/'
p857
aS'www.a16z.com/2013/12/18/the-lion-the-platform-and-the-lesson/'
p858
aS'www.a16z.com/2013/12/18/dooming-wild-dogs-and-digital-downloads/'
p859
aS'www.twitter.com/ttwak'
p860
aS'www.facebook.com/lutwak'
p861
aS'http://www.businessinsider.com/'
p862
aS'www.articles.chicagotribune.com/2014-03-25/sports/chi-bill-belichick-extra-points-20140325_1_bill-belichick-added-belichick-rich-mckay'
p863
aS'www.a16z.com/2013/07/22/people-marketplaces-3/'
p864
aS'www.a16z.com/2012/02/06/the-future-of-networking/'
p865
aS'www.a16z.com/tag/i-see-platforms/'
p866
aS'www.a16z.com/tag/platform-plays/'
p867
aS'www.a16z.com/tag/platforms/'
p868
aS'www.pando.com/2012/07/13/asia-may-once-again-pave-the-way-for-the-future-of-social-networks/'
p869
aS'www.mt.sohu.com/20150804/n418139020.shtml'
p870
aS'www.techinasia.com/wechat-549-million-active-users-q1-2015/'
p871
aS'www.a16z.com/2015/02/09/third-mobile-os-3/'
p872
aS'www.qz.com/179007/wechat-is-nothing-like-whatsapp-and-that-makes-it-even-more-valuable/'
p873
aS'www.techinasia.com/wechat-didi-dache-100000-taxi-rides-chinese-passengers/'
p874
aS'www.blog.twitter.com/2015/testing-new-ways-to-make-it-easier-to-discover-products-and-places'
p875
aS'http://www.wsj.com/articles/mobile-chat-service-kakaotalk-faces-growing-pains-1424885119'
p876
aS'www.dangrover.com/blog/2014/12/01/chinese-mobile-app-ui-trends.html#chatasui'
p877
aS'www.avc.com/2014/05/app-constellations/'
p878
aS'www.ben-evans.com/benedictevans/2014/8/1/app-unbundling-search-and-discovery'
p879
aS'www.a16z.com/tag/operating-systems/'
p880
aS'www.techinasia.com/line-reports-2014-revenues-of-656m-reaches-181m-monthly-active-users/'
p881
aS'www.vimeo.com/123624442'
p882
aS'http://www.shanghaidaily.com/business/it/Over-100m-users-pay-through-Tencents-WeChat-and-QQ/shdaily.shtml'
p883
aS'http://www.forbes.com/sites/davidyin/2015/02/19/tencents-wechat-sends-1-billion-virtual-red-envelopes-on-new-years-eve/'
p884
aS'www.techcrunch.com/2014/11/15/the-kingmaker-strategy-pioneered-by-the-chinese-internet-giants-coming-to-america/'
p885
aS'www.about.pinterest.com/en/buy-it'
p886
aS'http://www.reuters.com/article/2015/07/13/gsma-idUSnBw125058a+100+BSW20150713'
p887
aS'www.a16z.files.wordpress.com/2015/08/integratedapptoweb_a16z.png'
p888
aS'www.pando.com/2015/07/31/facebook-messenger-cheapest-quickest-way-zuckerberg-has-ever-acquired-700-million-users/'
p889
aS'www.recode.net/2015/06/18/messaging-apps-and-platforms-of-convenience/'
p890
aS'http://www.nytimes.com/2015/03/18/technology/facebook-announces-a-payments-feature-for-its-messenger-app.html'
p891
aS'www.techcrunch.com/2015/03/19/facebook-messenger-platform/'
p892
aS'www.techinasia.com/wechat-moments-adverts-test/'
p893
aS'www.a16z.com/tag/longreads/'
p894
aS'www.walkthechat.com/weidian-released-amazing-data-about-wechat-e-commerce-in-china/'
p895
aS'http://www.wired.com/2014/11/on-david-marcus-and-facebook/'
p896
aS'www.recode.net/2015/05/19/western-messaging-apps-are-looking-to-chinas-wechat-for-inspiration/'
p897
aS'www.youtu.be/F157geaXp_w'
p898
aS'www.v.qq.com/page/s/r/i/s0153j3wwri.html'
p899
aS'www.a16z.com/tag/unbundlingbundling/'
p900
aS'www.9to5mac.com/2015/07/21/fy15-q3-earnings-call/'
p901
aS'www.a16z.files.wordpress.com/2015/08/walletportal_a16z.png'
p902
aS'www.blogs.wsj.com/digits/2014/11/17/snapchat-debuts-way-to-send-cash-to-friends-in-a-snap/'
p903
aS'www.techcrunch.com/2015/06/10/never-leave/'
p904
aS'www.blogs.wsj.com/digits/2015/04/17/whatsapp-hits-800000-users-1-billion-by-year-end/'
p905
aS'www.v.youku.com/v_show/id_XOTUwODY0NDky.html'
p906
aS'www.techcrunch.com/2015/04/24/why-wechat-city-services-is-a-game-changing-move-for-smartphone-adoption/'
p907
aS'www.a16z.files.wordpress.com/2015/08/whitelabelingsmbs_a16z.png'
p908
aS'www.a16z.com/2015/11/05/distribution-v-innovation/'
p909
aS'www.a16z.com/2015/07/23/sales-compensation-beware-you-get-what-you-ask-for/'
p910
aS'www.a16z.com/2015/03/03/how-to-manage-vp-of-sales/'
p911
aS'www.a16z.com/2015/09/01/compensation-is-about-being-consistent/'
p912
aS'www.a16z.com/2015/05/22/a16z-podcast-finding-and-hiring-for-fit/'
p913
aS'www.a16z.com/2015/03/04/a16z-podcast-getting-sales-right/'
p914
aS'www.a16z.com/2015/08/12/equity-models-and-experiments/'
p915
aS'www.a16z.com/2015/05/21/a16z-podcast-hiring-is-hard-heres-how-to-do-it-right/'
p916
aS'www.a16z.com/2015/08/18/a16z-podcast-the-internet-is-his-religion/'
p917
aS'www.a16z.com/2015/06/22/a16z-podcast-investing-in-communities/'
p918
aS'www.ben-evans.com/benedictevans/2015/7/27/ways-to-think-about-cars'
p919
aS'www.a16z.com/2015/01/22/the-full-stack-startup/'
p920
aS'www.a16z.com/2015/10/07/a16z-podcast-slow-tech-companies-navigating-in-a-fast-tech-world/'
p921
aS'www.a16z.com/2014/12/02/understanding-one-of-the-most-misunderstood-concepts-disruption/'
p922
aS'www.a16z.com/2015/10/28/what-disruption-theory-is-and-isnt/'
p923
aS'www.ben-evans.com/benedictevans/2015/2/25/in-mobile-disruption-comes-from-above'
p924
aS'www.a16z.com/2015/07/17/great-leaders-arent-born-but-theyre-not-made-either/'
p925
aS'www.medium.com/@stevesi/a-leader-s-guide-to-deciding-what-when-and-how-to-decide-f6caf659fa7e'
p926
aS'www.cdixon.org/2013/08/04/the-idea-maze/'
p927
aS'www.a16z.com/2015/03/25/pmarca-tweetstorm-on-alignment-of-incentives-between-startup-teams-and-investors/'
p928
aS'www.a16z.com/2015/06/17/a16z-podcast-the-rise-of-the-quasi-ipo/'
p929
aS'www.a16z.com/2015/04/10/whats-holding-tech-ma-back/'
p930
aS'www.a16z.com/2015/08/13/first-board-process/'
p931
aS'www.a16z.com/2015/09/16/the-zero-b-s-method-to-recruiting-a-killer-sales-force/'
p932
aS'www.ben-evans.com/benedictevans/2015/5/14/apps-versus-the-web'
p933
aS'www.a16z.com/2014/11/21/a16z-podcast-ecommerce-and-the-holiday-shopping-collision/'
p934
aS'www.a16z.com/2015/06/05/a16z-podcast-looking-for-new-things-done-in-new-ways-with-the-apple-watch/'
p935
aS'www.blog.learningbyshipping.com/2015/01/11/ces-2015-recap-for-makers-and-product-managers/'
p936
aS'www.cdixon.org/2014/03/15/full-stack-startups/'
p937
aS'www.a16z.com/2012/06/15/good-product-managerbad-product-manager/'
p938
aS'www.a16z.com/2015/05/20/enterprise-sales-for-product-people/'
p939
aS'www.blog.learningbyshipping.com/2015/01/10/ces-ingredients-not-just-products/'
p940
aS'www.a16z.com/2014/02/06/6147/'
p941
aS'www.a16z.com/2014/11/28/a16z-podcast-guiding-startup-culture-the-genius-isms/'
p942
aS'www.a16z.com/2014/07/08/beware-the-edifice-complex-and-9-other-ways-to-damage-your-high-growth-startup/'
p943
aS'www.a16z.com/2015/02/03/a16z-podcast-crisis-time-what-to-do-when-things-go-sideways/'
p944
aS'www.a16z.com/2015/07/11/12-things-ive-learned-from-ben-horowitz-about-management-investing-and-business/'
p945
aS'www.a16z.com/2014/07/22/how-to-ruin-your-company-with-one-bad-process/'
p946
aS'www.a16z.com/2014/07/08/protecting-your-company-from-itself-why-you-need-hr/'
p947
aS'www.a16z.com/2015/06/01/clean-up-your-startups-b-s-bring-sales-into-the-leadership-team/'
p948
aS'www.a16z.com/2015/03/06/go-to-market-bootcamp/'
p949
aS'www.a16z.com/2015/03/05/a16z-podcast-embracing-sales-and-selling-to-developers/'
p950
aS'www.jessicahagy.info/'
p951
aS'www.a16z.com/tag/ebooks/'
p952
aS'www.docs.google.com/forms/d/1Ngrh6NW_XGKxM_pFO46JcuXPZ78is7rfL6bHo32ZNRI/viewform'
p953
aS'www.a16z.com/tag/career/'
p954
aS'www.pandawhale.com/ifindkarma/pmarca-archive'
p955
aS'www.blog.jedchristiansen.com/pmarcaarchive/'
p956
aS'www.pressbooks.com/'
p957
aS'www.a16z.com/2014/12/25/top-tweetstorms/'
p958
aS'www.pmarchive.com/'
p959
aS'www.a16z.com/2015/03/25/a16z-podcast-public-or-private-finding-the-right-board-seat/'
p960
aS'www.a16z.com/2015/03/20/breaking-into-the-boardroom/'
p961
aS'www.a16z.com/2015/03/20/a16z-podcast-board-truths-candid-conversation/'
p962
aS'www.a16z.com/2015/10/29/board-networks/'
p963
aS'www.a16z.com/2015/09/21/building-the-right-technical-advisory-board/'
p964
aS'www.a16z.com/2015/06/15/u-s-tech-funding-whats-going-on/'
p965
aS'www.a16z.com/2014/12/29/pmarca-tweetstorm-stagnation-theory-35/'
p966
aS'www.a16z.com/2014/12/30/pmarca-tweetstorm-stagnation-theory-55-wrap-up/'
p967
aS'www.ben-evans.com/benedictevans/2015/9/14/distribution-and-audience'
p968
aS'www.cdixon.org/2015/01/31/come-for-the-tool-stay-for-the-network/'
p969
aS'www.a16z.com/2015/11/13/quantum-computing/'
p970
aS'www.a16z.com/2015/10/08/how-big-companies-can-get-the-most-from-silicon-valley/'
p971
aS'http://www.plan-uk.org/404?aspxerrorpath=/early-and-forced-marriage/'
p972
aS'http://www.theguardian.com/world/2013/mar/15/muslim-brotherhood-backlash-un-womens-rights'
p973
aS'www.a16z.com/2014/03/02/the-legend-of-the-blind-mc-2/'
p974
aS'www.en.wikipedia.org/wiki/Thomas_Clarkson'
p975
aS'www.a16z.com/2012/08/18/a-good-place-to-work/'
p976
aS'http://www.unicef.org/media/media_30047.html'
p977
aS'www.globalcitizen.org/en/content/introduction-to-the-challenges-of-achievi'
p978
aS'www.news.rapgenius.com/Sade-pearls-annotated'
p979
aS'www.ajws.org/'
p980
aS'http://www.amazon.com/The-Hard-Thing-About-Things-ebook/dp/B00DQ845EA'
p981
aS'http://www.unicef.org/mdg/gender.html'
p982
aS'www.a16z.com/2015/05/28/some-career-advice-for-all-you-recent-graduates/'
p983
aS'www.a16z.com/tag/ben-horowitz/'
p984
aS'www.a16z.com/tag/finance/'
p985
aS'www.a16z.com/2014/07/25/why-the-structural-changes-to-the-vc-industry-matter/'
p986
aS'www.a16z.com/2010/03/14/notes-on-leadership/'
p987
aS'www.a16z.com/2013/02/06/the-i-just-got-bought-by-a-big-company-survival-guide-2/'
p988
aS'www.a16z.com/2015/01/22/crowdfunding/'
p989
aS'www.a16z.com/2015/09/12/a16z-podcast-the-best-way-to-be-smart-is-to-not-be-stupid/'
p990
aS'www.a16z.com/tag/alex-rampell/'
p991
aS'www.a16z.com/tag/financial-services/'
p992
aS'www.a16z.com/2015/01/22/bitcoin-and-blockchain/'
p993
aS'www.scott.a16z.com/2013/04/30/how-would-you-start-a-paypal-or-rebuild-visa-today/'
p994
aS'www.a16z.com/tag/scott-weiss/'
p995
aS'www.feeds.wordpress.com/1.0/gofacebook/benhorowitz.wordpress.com/689/'
p996
aS'www.feeds.wordpress.com/1.0/godigg/benhorowitz.wordpress.com/689/'
p997
aS'www.feeds.wordpress.com/1.0/gotwitter/benhorowitz.wordpress.com/689/'
p998
aS'www.feeds.wordpress.com/1.0/goreddit/benhorowitz.wordpress.com/689/'
p999
aS'www.genius.com/Kanye-west-touch-the-sky-lyrics'
p1000
aS'www.feeds.wordpress.com/1.0/godelicious/benhorowitz.wordpress.com/689/'
p1001
aS'www.feeds.wordpress.com/1.0/gocomments/benhorowitz.wordpress.com/689/'
p1002
aS'www.feeds.wordpress.com/1.0/gostumble/benhorowitz.wordpress.com/689/'
p1003
aS'www.feeds.wordpress.com/1.0/godelicious/benhorowitz.wordpress.com/545/'
p1004
aS'www.feeds.wordpress.com/1.0/gofacebook/benhorowitz.wordpress.com/545/'
p1005
aS'www.feeds.wordpress.com/1.0/gocomments/benhorowitz.wordpress.com/545/'
p1006
aS'www.en.wikipedia.org/wiki/Routing_Information_Protocol'
p1007
aS'www.feeds.wordpress.com/1.0/goreddit/benhorowitz.wordpress.com/545/'
p1008
aS'www.feeds.wordpress.com/1.0/godigg/benhorowitz.wordpress.com/545/'
p1009
aS'www.feeds.wordpress.com/1.0/gostumble/benhorowitz.wordpress.com/545/'
p1010
aS'www.genius.com/Run-dmc-its-like-that-lyrics'
p1011
aS"www.en.wikipedia.org/wiki/Linus'_Law"
p1012
aS'www.feeds.wordpress.com/1.0/gotwitter/benhorowitz.wordpress.com/545/'
p1013
aS'www.ben-evans.com/benedictevans/2014/10/30/apple-pay-partnerships-and-software-as-disruption'
p1014
aS'www.a16z.com/2015/05/19/a16z-podcast-which-bitcoin-players-matter/'
p1015
aS'www.a16z.com/2014/02/06/why-bitcoin-matters/'
p1016
aS'www.a16z.com/tag/bitcoin/'
p1017
aS'www.mobile.nytimes.com/blogs/dealbook/2014/01/21/why-bitcoin-matters/'
p1018
aS'www.a16z.com/2014/10/24/the-bitcoin-network-effect/'
p1019
aS'www.ihub.co.ke/'
p1020
aS'http://www.economist.com/news/middle-east-and-africa/21649516-innovation-increasingly-local-pioneering-continent'
p1021
aS'www.a16z.com/2015/07/02/entrepreneurship-universal-language/'
p1022
aS'www.a16z.com/tag/africa/'
p1023
aS'www.spinlet.com/'
p1024
aS'www.a16z.com/tag/coding-literacy-access/'
p1025
aS'www.flickr.com/photos/au_unistphotostream/11946757075/'
p1026
aS'www.projectisizwe.org/'
p1027
aS'www.a16z.com/tag/christopher-schroeder/'
p1028
aS'www.a16z.com/tag/innovation-clusters/'
p1029
aS'http://www.feld.com/archives/tag/startup-communities'
p1030
aS'www.people.ischool.berkeley.edu/~anno/Books/'
p1031
aS'www.a16z.com/tag/government-tech/'
p1032
aS'http://www.startuprisingbook.com/other-articles'
p1033
aS'www.a16z.com/tag/a16z-podcast-on-the-road/'
p1034
aS'http://www.wsj.com/articles/SB10001424053111903480904576512250915629460'
p1035
aS'http://www.politico.com/magazine/story/2015/06/iran-tech-startups-119506_full.html?print#.VZK8CxNVikp'
p1036
aS'www.a16z.com/2014/03/27/andreessen-horowitz-raises-new-fund/'
p1037
aS'www.startuprisingbook.com/'
p1038
aS'www.a16z.com/tag/moocs/'
p1039
aS'www.a16z.com/tag/mobile-is-eating-the-world/'
p1040
aS'www.foreignpolicy.com/2015/06/03/why-technology-hasnt-delivered-more-democracy-democratic-transition/'
p1041
aS'http://www.slideshare.net/a16z/mew-a16z'
p1042
aS'http://www.joinef.com/'
p1043
aS'www.a16z.com/tag/entrepreneurship/'
p1044
aS'http://www.technologyreview.com/news/516501/in-innovation-quest-regions-seek-critical-mass/'
p1045
aS'www.economictimes.indiatimes.com/tech/ites/silicon-valley-can-be-created-anywhere-vinod-khosla/articleshow/35199374.cms'
p1046
aS'http://www.washingtonpost.com/national/on-innovations/industry-clusters-the-modern-day-snake-oil/2011/06/19/gIQAMtx3EI_story.html'
p1047
aS'www.a16z.com/tag/permissionless-innovation/'
p1048
aS'http://www.development.wne.uw.edu.pl/uploads/Courses/ied_porter_2000.pdf'
p1049
aS'http://www.forbes.com/sites/timworstall/2014/05/18/astonishing-number-ericsson-predicts-5-9-billion-smarpthone-users-within-5-years/'
p1050
aS'www.a16z.com/tag/regulatory-arbitrage/'
p1051
aS'www.en.wikipedia.org/wiki/Regulatory_capture'
p1052
aS'www.a16z.files.wordpress.com/2014/06/8666949245_ce1e6918cd_b.jpg'
p1053
aS'http://www.wired.com/2014/01/zappos-tony-hsieh-las-vegas/'
p1054
aS'http://www.wired.com/2013/04/then-internet-now-airspace-dont-stifle-innovation-on-the-next-great-platform/'
p1055
aS'http://www.ihub.co.ke/about'
p1056
aS'http://www.brookings.edu/about/programs/metro/innovation-districts'
p1057
aS'www.steveblank.com/secret-history/'
p1058
aS'http://www.wired.com/2014/05/cheap-smartphones/'
p1059
aS'http://www.politico.com/magazine/story/2014/06/turn-detroit-into-drone-valley-107853.html#.U6SqLY1dWGQ'
p1060
aS'www.twitter.com/balajis/status/476981073805447168'
p1061
aS'www.blogs.kqed.org/newsfix/2014/03/03/lyft-uber-regulation/'
p1062
aS'http://www.nber.org/papers/w13710.pdf'
p1063
aS'http://www.wired.com/2013/07/we-need-to-stop-focusing-on-just-cable-companies-and-blame-local-government-for-dismal-broadband-competition/'
p1064
aS'www.grantland.com/features/kobe-bryant-dr-chris-renna-regenokine-knee-treatment/'
p1065
aS'http://www.mit.edu/~tavneet/Jack_Suri.pdf'
p1066
aS'http://www.technologyreview.com/news/516506/silicon-valley-cant-be-copied/'
p1067
aS'http://www.coindesk.com/denmark-declares-bitcoin-trades-tax-free/'
p1068
aS'www.lkyspp.nus.edu.sg/aci/wp-content/uploads/sites/4/2013/04/Industrial-cluster-Development-and-Innovation-in-Singapore.pdf'
p1069
aS'www.twitter.com/pmarca/status/426587326861430785'
p1070
aS'www.a16z.com/tag/trends/'
p1071
aS'http://www.eiu.com/industry/article/1020919886/japan-pharma-rd-price-tag/2013-09-03'
p1072
aS'http://www.nytimes.com/2012/05/25/opinion/keep-the-internet-open.html'
p1073
aS'www.a16z.com/tag/government-tech-series/'
p1074
aS'http://www.dw.de/unbanked-and-cashless-why-mobile-wallets-like-m-pesa-are-doing-it-hard-in-europe/a-17705270'
p1075
aS'http://www.feld.com/wp/archives/2014/04/empirical-support-boulder-thesis.html'
p1076
aS'http://www.wired.com/2013/12/balaji-srinivasan-joins-a16z/'
p1077
aS'http://www.reuters.com/article/2014/05/06/23andme-genetictesting-idUSL2N0NS0Y820140506'
p1078
aS'http://www.slideshare.net/yiibu/the-emerging-global-web'
p1079
aS'http://www.missouridronejournalism.com/2013/04/what-flies-when-it-comes-to-drone-laws-across-the-globe/'
p1080
aS'http://www.hup.harvard.edu/catalog.php?isbn=9780674753402'
p1081
aS'www.a16z.com/tag/academic-roundtable-2015/'
p1082
aS'www.academic.a16z.com/#agenda'
p1083
aS'www.a16z.com/tag/tech-transfer/'
p1084
aS'www.a16z.com/tag/academia/'
p1085
aS'www.a16z.com/tag/community/'
p1086
aS'www.a16z.com/tag/ingestion/'
p1087
aS'www.a16z.com/tag/food-x-tech/'
p1088
aS'www.a16z.com/tag/holiday-specials/'
p1089
aS'www.a16z.com/tag/ai/'
p1090
aS'www.a16z.com/2015/01/15/skydio/'
p1091
aS'www.hwcdn.libsyn.com/p/0/7/0/07075ab7b1017d90/TKP_Chris_Dixon.mp3?c_id=10277514&expiration=1453943989&hwt=2507d5b0f1f1cf866b1bdcadfc302572'
p1092
aS'www.a16z.com/2015/02/04/how-to-navigate-the-idea-maze-for-artificial-intelligence-startups/'
p1093
aS'www.a16z.com/2015/11/19/defeating-aging/'
p1094
aS'www.farnamstreetblog.com/the-knowledge-project/'
p1095
aS'www.a16z.com/tag/lifestyle/'
p1096
aS'www.a16z.com/tag/presence/'
p1097
aS'www.a16z.com/tag/augmented-reality/'
p1098
aS'www.a16z.com/2014/03/28/a16z-podcast-oculus-and-the-mind-blowing-reality-of-virtual-reality/'
p1099
aS'www.twitter.com/StartupLJackson/status/647051148931694592'
p1100
aS'www.medium.com/@zeldman/ad-blocking-and-the-future-of-the-web-78e44e57edb9'
p1101
aS'http://www.theverge.com/2015/9/17/9338963/welcome-to-hell-apple-vs-google-vs-facebook-and-the-slow-death-of-the-web'
p1102
aS'www.a16z.com/tag/advertising-tech/'
p1103
aS'http://www.theawl.com/2015/09/welcome-to-the-block-party'
p1104
aS'http://www.marco.org/2015/09/18/just-doesnt-feel-good'
p1105
aS'www.twitter.com/BenedictEvans/status/647298635248504832'
p1106
aS'www.twitter.com/BenedictEvans/status/644680131739435008'
p1107
aS'www.cdixon.org/2009/08/25/six-strategies-for-overcoming-chicken-and-egg-problems/'
p1108
aS'www.cdixon.org/tag/online-advertising/'
p1109
aS'www.twitter.com/mitchwongho/status/645848008609898496'
p1110
aS'www.genius.com/Mellow-man-ace-mentirosa-lyrics'
p1111
aS'www.a16z.files.wordpress.com/2015/04/ted_ullyot1.jpg'
p1112
aS'www.a16z.com/tag/drones/'
p1113
aS'www.a16z.com/tag/qas/'
p1114
aS'www.a16z.com/tag/ted-ullyot/'
p1115
aS'www.a16zpeter.files.wordpress.com/2014/02/peterlevine2.png'
p1116
aS'www.a16zpeter.files.wordpress.com/2014/02/peterlevine1.png'
p1117
aS'www.a16z.files.wordpress.com/2014/02/hats2.jpg'
p1118
aS'http://www.theguardian.com/technology/2014/feb/07/satya-nadella-mobile-windows-phone-android?curator=MediaREDEF'
p1119
aS'www.a16z.com/tag/peter-levine/'
p1120
aS'www.a16z.files.wordpress.com/2014/05/gap1.jpg'
p1121
aS'www.a16z.com/tag/you-bet-your-saas-series/'
p1122
aS'www.a16z.com/2014/11/13/when-fantasy-football-and-crowdfunding-collide/'
p1123
aS'www.a16z.com/tag/executive-talent/'
p1124
aS'www.genius.com/Boogie-down-productions-my-philosophy-lyrics'
p1125
aS'www.benhorowitz.files.wordpress.com/2010/05/good-product-manager.pdf'
p1126
aS'www.a16z.com/tag/margit-wennmachers/'
p1127
aS'http://www.newyorker.com/magazine/2014/11/10/better-time'
p1128
aS'www.linkedin.com/today/post/article/20141101115510-42282-science-has-finally-figured-out-how-elite-athletes-best-each-other-pay-attention'
p1129
aS'www.a16z.com/tag/quantified-self/'
p1130
aS'www.genius.com/Parliament-ride-on-lyrics#lyric'
p1131
aS'http://www.billjaneway.com/'
p1132
aS'www.a16z.com/tag/vc-industry/'
p1133
aS'www.genius.com/Rakim-microphone-fiend-lyrics'
p1134
aS'www.fortune.com/2014/10/13/what-ebay-and-other-tech-splits-say-about-the-future-of-cloud-computing/'
p1135
aS'www.a16z.com/tag/scott-kupor/'
p1136
aS'www.smoothspan.wordpress.com/2007/09/25/interview-concurs-ceo-steve-singh-speaks-out-on-saason-demand/'
p1137
aS'http://www.wired.com/2014/08/datacenter-of-the-future/'
p1138
aS'http://www.newyorker.com/news/john-cassidy/the-reinhart-and-rogoff-controversy-a-summing-up'
p1139
aS'http://www.forbes.com/sites/maggiemcgrath/2014/10/09/antivirus-maker-symantec-splitting-into-two-publicly-traded-companies/'
p1140
aS'http://www.agilemanifesto.org/principles.html'
p1141
aS'www.a16z.com/tag/devops/'
p1142
aS'www.scott.a16z.com/2014/03/24/were-fd-its-over-coming-back-from-the-brink/'
p1143
aS'www.blogs.wsj.com/cio/2013/09/09/the-saas-manifesto-navigating-the-departmentalization-of-it/?cb=logged0.2612913344055414'
p1144
aS'http://www.gartner.com/newsroom/id/2537815'
p1145
aS'www.a16z.com/tag/cio/'
p1146
aS'www.peter.a16z.com/2012/12/06/the-renaissance-of-enterprise-computing/'
p1147
aS'http://www.inc.com/geoffrey-james/selling-face-to-face-is-almost-obsolete.html'
p1148
aS'www.a16z.com/2014/03/25/oculus-vr-and-facebook-a-massive-boost-for-virtual-reality/'
p1149
aS'www.a16z.com/tag/culture/'
p1150
aS'www.a16z.com/tag/peace-dividend-of-the-smartphone-wars/'
p1151
aS'www.a16z.com/2015/01/02/virtual-reality-has-an-unusually-favorable-market-structure/'
p1152
aS'www.stories.californiasunday.com/2014-10-05/virtual-reality-hollywood'
p1153
aS'www.cdixon.org/2015/01/01/the-thin-edge-the-wedge-for-virtual-reality/'
p1154
aS'www.a16z.com/tag/new-platforms-new-mediums/'
p1155
aS'www.a16z.com/tag/entertainment/'
p1156
aS'http://www.economist.com/debate/days/view/710'
p1157
aS'www.a16z.com/2014/10/28/client-cloud-computing-and-the-evolution-of-the-mobile-app/'
p1158
aS'www.a16z.com/tag/a-focus-on-developers/'
p1159
aS'www.a16z.com/2015/01/22/devops/'
p1160
aS'www.a16z.com/2014/06/09/mesosphere-a-platform-for-the-next-generation-datacenter/'
p1161
aS'www.a16z.com/2012/12/06/the-renaissance-of-enterprise-computing/'
p1162
aS'www.a16z.com/tag/predictive-analytics/'
p1163
aS'www.a16z.com/2014/10/20/big-data-on-demand/'
p1164
aS'www.a16z.com/2015/01/22/security/'
p1165
aS'www.blog.everlaw.com/2016/01/14/everlaws-big-news'
p1166
aS'www.a16z.com/2013/12/18/using-software-and-a-crowd-to-push-the-frontiers-of-human-understanding/'
p1167
aS'www.a16z.com/2014/07/30/the-happy-demise-of-the-10x-engineer/'
p1168
aS'www.a16z.com/2014/04/10/a16z-podcast-engineering-a-revolution-at-work/'
p1169
aS'www.a16z.com/tag/consumer-electronics/'
p1170
aS'www.a16z.com/2015/03/23/xiaomi-and-how-the-spread-of-new-types-of-android-oem-might-change-googles-control-of-android/'
p1171
aS'www.a16z.com/2014/08/11/a16z-podcast-mobile-invades-the-data-center/'
p1172
aS'www.a16z.com/tag/software/'
p1173
aS'www.a16z.com/tag/movie-screenings/'
p1174
aS'http://www.oprah.com/app/own-tv.html'
p1175
aS'www.blogs.indiewire.com/shadowandact/oprah-winfrey-presents-landmark-7-night-event-series-belief-premiering-sunday-october-18-20150723'
p1176
aS'www.medium.com/this-happened-to-me/when-smart-people-are-bad-employees-14755331f32e'
p1177
aS'www.medium.com/@feliciahorowitz/somewhere-in-between-6374de582d1a'
p1178
aS'www.genius.com/Too-short-gettin-it-lyrics/'
p1179
aS'www.a16z.com/2015/03/31/tanium/'
p1180
aS'www.a16z.com/2015/05/05/a16z-podcast-getting-security-right-isnt-as-hard-as-you-think-but-the-effort-never-ends/'
p1181
aS'www.a16z.com/tag/enterprise/'
p1182
aS'www.a16z.com/2014/06/22/tanium-magic/'
p1183
aS'www.a16z.com/2014/06/27/a16z-podcast-when-large-scale-gets-really-massive-managing-todays-enterprise-networks/'
p1184
aS'www.a16z.com/2011/04/14/peacetime-ceowartime-ceo-2/'
p1185
aS'www.a16z.com/tag/honoring-the-greats/'
p1186
aS'www.knopfdoubleday.com/book/72467/high-output-management/9781101972366/'
p1187
aS'www.genius.com/Nas-ubr-unauthorized-biography-of-rakim-lyrics'
p1188
aS'www.a16z.com/2011/03/16/titles-and-promotions/'
p1189
aS'www.a16z.com/2010/04/05/on-micromanagement/'
p1190
aS'www.youtu.be/7B7EEvbUcWQ'
p1191
aS'www.a16z.com/2012/10/03/why-andreessen-horowitz-is-investing-in-rap-genius/'
p1192
aS'www.a16z.com/2014/08/25/a16z-podcast-ben-and-marc-explain-practically-everything-part-1/'
p1193
aS'www.a16z.com/2012/04/25/our-philanthropic-commitment/'
p1194
aS'www.ben-evans.com/benedictevans/2015/1/11/home-and-the-mobile-supply-chain'
p1195
aS'www.ben-evans.com/benedictevans/2015/8/25/podcast-ways-to-think-about-cars'
p1196
aS'www.ben-evans.com/benedictevans/2014/2/26/tablets-pcs-and-office'
p1197
aS'www.ben-evans.com/benedictevans/2015/7/16/google-now-maps-and-apple-music'
p1198
aS'www.ben-evans.com/benedictevans/2014/6/21/amazon-and-forks'
p1199
aS'www.ben-evans.com/benedictevans/2015/8/10/what-would-you-miss'
p1200
aS'www.ben-evans.com/benedictevans/2015/7/8/capitulation'
p1201
aS'www.ben-evans.com/benedictevans/2014/1/28/ecosystem-maths'
p1202
aS'www.ben-evans.com/benedictevans/2014/12/3/how-many-people-really-care-about-google-services'
p1203
aS'www.ben-evans.com/benedictevans/2015/3/12/why-is-apple-making-a-gold-watch'
p1204
aS'www.ben-evans.com/benedictevans/2014/10/14/the-industrial-internet'
p1205
aS'www.ben-evans.com/benedictevans/2015/9/1/forget-about-mobile-internet'
p1206
aS'www.ben-evans.com/benedictevans/2014/3/27/notes-on-tv'
p1207
aS'www.ben-evans.com/benedictevans/2015/4/14/what-does-google-need-on-mobile'
p1208
aS'www.ben-evans.com/benedictevans/2015/1/11/whatsapp-sails-past-sms-but-where-does-messaging-go-next'
p1209
aS'www.ben-evans.com/benedictevans/2015/5/13/the-smartphone-and-the-sun'
p1210
aS'www.ben-evans.com/benedictevans/2015/11/15/bay-area-problems'
p1211
aS'www.ben-evans.com/benedictevans/2015/5/21/office-messaging-and-verbs'
p1212
aS'www.ben-evans.com/benedictevans/2014/10/14/how-many-ecosystems'
p1213
aS'www.ben-evans.com/benedictevans/2015/4/3/podcast-messaging-and-mobile-platforms'
p1214
aS'www.ben-evans.com/benedictevans/2015/8/2/notes-on-apple-watch-and-friction'
p1215
aS'www.ben-evans.com/benedictevans/2015/2/11/podcast-slack-messaging-and-institutional-memory'
p1216
aS'www.a16z.com/2014/12/30/our-top-10-posts-and-primers-of-2014/'
p1217
aS'www.ben-evans.com/benedictevans/2015/6/24/search-discovery-and-marketing'
p1218
aS'www.ben-evans.com/benedictevans/2015/9/26/mobile-is-not-a-neutral-platform'
p1219
aS'www.a16z.com/2015/11/09/mobile-ecosystems-and-the-death-of-pcs/'
p1220
aS'www.ben-evans.com/benedictevans/2015/1/11/resetting-the-score'
p1221
aS'www.ben-evans.com/benedictevans/2014/5/26/the-internet-of-things'
p1222
aS'www.ben-evans.com/benedictevans/2014/9/15/ways-to-think-about-watches'
p1223
aS'www.a16z.com/tag/steven-sinofsky/'
p1224
aS'www.a16z.com/tag/hallway-conversations/'
p1225
aVwww.a16z.com/portfolio/seed/?sort=name
p1226
aVwww.a16z.com/portfolio/seed/?sort=date
p1227
aVwww.a16z.com//portfoliojobs.a16z.com/
p1228
aVwww.a16z.com/#0
p1229
aS'www.a16z.files.wordpress.com/2013/12/amazon.jpg'
p1230
aS'www.theclymb.com/preview'
p1231
aS'www.jeff.a16z.com/2013/05/09/godzilla-vs-mothra-the-sequel/'
p1232
aS'http://www.reuters.com/article/2013/03/28/us-retail-walmart-delivery-idUSBRE92R03820130328'
p1233
aS'http://www.zulily.com'
p1234
aS'http://www.shoedazzle.com'
p1235
aS'http://www.trunkclub.com/'
p1236
aS'http://www.onekingslane.com'
p1237
aS'http://www.nastygal.com/'
p1238
aS'http://www.birchbox.com/'
p1239
aS'www.a16zjeff.files.wordpress.com/2013/10/top-50-e-retailers.png'
p1240
aS'http://www.youtube.com/watch?v=HXzQqqn-rVc'
p1241
aS'www.jeff.a16z.com/2013/10/25/so-you-want-to-compete-against-amazon/'
p1242
aS'http://www.julep.com'
p1243
aS'http://www.poppin.com/'
p1244
aS'http://www.fab.com'
p1245
aS'www.chloeandisabel.com/'
p1246
aS'http://www.zappos.com'
p1247
aS'www.a16z.com/2014/10/31/a16z-podcast-selling-tech-to-everyone-changes-everything/'
p1248
aS'www.a16z.com/tag/quantum-computing/'
p1249
aS'www.a16z.com/tag/cryptography/'
p1250
aS'www.a16z.com/2014/09/25/on-dark-talent-moocs-universities-and-startups-an-interview-with-andreessen-horowitz-first-distinguished-visiting-professor-of-computer-science/'
p1251
aS'www.a16z.com/tag/in-residence/'
p1252
aS'www.crypto.stanford.edu/~dabo/'
p1253
aS'www.dealbook.nytimes.com/2012/12/12/how-boulder-grew-into-a-hub-for-start-ups/'
p1254
aS'www.fmurray.scripts.mit.edu/'
p1255
aS'www.a16z.com/2015/08/31/a16z-podcast-connecting-people-with-digital-work-the-gig-economy-and-more/'
p1256
aS'www.a16z.com/2013/10/17/rewriting-narrative/'
p1257
aS'www.a16z.com/2011/03/01/picking-a-general-partner/'
p1258
aS'www.a16z.com/2014/02/06/silicon-valley-cant-find-europe/'
p1259
aS'www.a16z.com/2014/11/21/a16z-podcast-wheres-my-stuff-the-low-down-on-logistics-and-ops/'
p1260
aS'www.jeff.a16z.com/2014/06/16/unpacking-the-grocery-stack/'
p1261
aS'www.jeff.a16z.com/2012/06/29/the-case-for-e-commerce-acceleration-aka-bye-bye-bby/'
p1262
aS'http://www.ruelala.com/'
p1263
aS'www.secure.us.venteprivee.com/vp4/Login/Portal_US.aspx'
p1264
aS'http://www.ledbury.com/'
p1265
aS'http://www.ahalife.com/'
p1266
aS'http://www.baublebar.com/'
p1267
aS'www.citruslane.com/'
p1268
aS'http://www.warbyparker.com/'
p1269
aS'www.onekingslane.com/'
p1270
aS'http://www.stelladot.com/'
p1271
aS'http://www.gilt.com/'
p1272
aS'http://www.zulily.com/'
p1273
aS'www.fab.com/'
p1274
aS'http://www.dollarshaveclub.com/'
p1275
aVwww.a16z.com/renttherunway.com
p1276
aS'http://www.bonobos.com/welcome/n'
p1277
aS'http://www.chloeandisabel.com/'
p1278
aS'http://www.bluenile.com/'
p1279
aS'www.jhilburn.com/'
p1280
aS'www.a16z.files.wordpress.com/2014/06/defense-gov_news_photo_100628-d-9880w-113_-_under_secretary_of_defense_for_acquisition_technology_and_logistics_ashton_carter_briefs_reporters_in_the_pentagon_on_new_acquisition_initiati.jpg'
p1281
aS'www.a16z.com/tag/amplab/'
p1282
aS'www.a16z.com/2014/11/05/computer-science-innovation-in-academia-begins-with-open-source/'
p1283
aS'www.a16z.com/tag/spark/'
p1284
aS'www.databricks.com/spark/about'
p1285
aS'http://www.wsj.com/articles/newer-software-aims-to-crunch-hadoops-numbers-1434326008'
p1286
aS'www.a16z.com/tag/hadoop/'
p1287
aS'http://www.forbes.com/sites/gregsatell/2015/06/22/ibms-latest-move-signals-a-new-era-for-data/'
p1288
aS'www.a16z.com/2014/08/07/big-data-meets-big-compute/'
p1289
aS'www.a16z.com/tag/software-development/'
p1290
aS'www.a16z.com/2014/08/13/a16z-podcast-an-open-source-business-model-that-works/'
p1291
aS'www.a16z.com/tag/vijay-pande/'
p1292
aS'www.a16z.com/tag/sensors-everywhere-and/'
p1293
aS'www.a16z.com/tag/distributed-computing/'
p1294
aS'www.a16z.com/tag/simulations/'
p1295
aS'www.a16z.com/tag/computational-biomedicine/'
p1296
aS'www.a16z.com/2014/10/03/a16z-podcast-startups-as-science-experiments-can-vc-disrupt-academia-and-vice-versa/'
p1297
aS'www.twitter.com/vijaypande'
p1298
aS'www.a16z.com/tag/deep-learning/'
p1299
aS'http://www.wired.com/2015/04/meet-adatao-poster-child-next-wave-big-data/'
p1300
aS'www.twitter.com/peter_levine'
p1301
aS'www.a16z.files.wordpress.com/2013/12/asset1380410224.jpg?w=400&h=400&crop=1'
p1302
aS'www.a16z.com/tag/building-companies/'
p1303
aS'www.a16z.com/2015/02/12/slack-1-year-later/'
p1304
aS'www.dealbook.nytimes.com/2014/01/21/why-bitcoin-matters/?_r=0'
p1305
aS'www.video.cnbc.com/gallery/?video=3000445837'
p1306
aS'www.a16z.com/tag/native-bitcoin-apps/'
p1307
aS'www.twitter.com/adamludwin'
p1308
aS'www.a16z.files.wordpress.com/2015/10/alex_rampell.jpg?w=400&h=400&crop=1'
p1309
aS'www.a16z.com/2013/12/18/making-math-education-relevant-in-the-computer-age/'
p1310
aS'www.a16z.com/tag/insurance/'
p1311
aS'www.a16z.com/tag/driverless-cars/'
p1312
aS'www.a16z.com/2015/01/26/learning-from-my-mistakes/'
p1313
aS'www.a16z.com/tag/no-more-fees-please/'
p1314
aS'www.a16z.com/tag/healthcare/'
p1315
aS'www.engine.is/about'
p1316
aS'www.copia.is/about/'
p1317
aS'www.linkedin.com/in/adrian-fenty-12072455'
p1318
aS'www.a16z.files.wordpress.com/2015/04/ted_ullyot1.jpg?w=400&h=400&crop=1'
p1319
aS'www.linkedin.com/pub/ted-ullyot/11/476/677'
p1320
aS'www.twitter.com/tullyot'
p1321
aS'www.a16z.com/tag/datacenters/'
p1322
aS'www.a16z.com/tag/storage/'
p1323
aS'http://www.wired.com/2013/02/baidu-arm/'
p1324
aS'www.a16z.com/tag/cloud-infrastructure-series/'
p1325
aS'www.allthingsd.com/20121205/the-renaissance-of-enterprise-computing/'
p1326
aS'www.techcrunch.com/2010/11/13/new-enterprise-customer/'
p1327
aS'http://www.wired.com/2012/01/facebook-server-lab/'
p1328
aS'http://www.wired.com/2013/01/open-compute-rackspace/'
p1329
aS'www.en.wikipedia.org/wiki/X86'
p1330
aS'http://www.wired.com/2013/01/facebook-arm-chips/'
p1331
aS'http://www.wired.com/2012/08/google-as-xerox-parc/all/'
p1332
aS'http://www.theregister.co.uk/2015/09/30/tuccis_terrible_dilemma_emc_elliot_shareholder/'
p1333
aS'http://www.marketwatch.com/story/elliott-management-comments-on-emc-dell-transaction-2015-10-12'
p1334
aS'www.seekingalpha.com/article/3587466-vmware-vmw-patrick-p-gelsinger-on-q3-2015-results-earnings-call-transcript?page=7&p=qanda&l=last'
p1335
aS'www.dealbook.nytimes.com/2013/02/05/dell-sets-23-8-billion-deal-to-go-private/'
p1336
aS'www.a16z.com/tag/microservices-architecture/'
p1337
aS'www.blogs.wsj.com/moneybeat/2015/10/12/tracking-the-logic-of-dells-tracking-stock-maneuver/'
p1338
aS'www.dell.com/learn/us/en/uscorp1/secure/2015-10-12-dell-emc-transaction'
p1339
aS'http://www.crn.com/news/storage/300077300/emc-exec-our-team-is-educating-elliott-management-on-federation-strategy.htm'
p1340
aS'http://www.pionline.com/article/20150224/ONLINE/150229936/activist-hedge-fund-assets-increase-269-over-last-5-years-8212-aima-paper'
p1341
aS'http://www.sec.gov/Archives/edgar/data/1124610/000119312507176405/ds1a.htm'
p1342
aS'www.blogs.barrons.com/techtraderdaily/2015/10/22/vmwares-a-value-says-jefferies-what-other-choice-is-there-says-bernstein/'
p1343
aS'www.a16z.com/tag/containers/'
p1344
aS'http://www.forbes.com/sites/connieguglielmo/2013/10/30/you-wont-have-michael-dell-to-kick-around-anymore/'
p1345
aS'http://www.sec.gov/answers/track.htm'
p1346
aS'www.finance.yahoo.com/q?s=VMW&ql=0'
p1347
aS'www.fortune.com/2015/10/21/joe-tucci-vmware-shareholders/'
p1348
aS'www.vmware.com/company/news/releases/emc2'
p1349
aS'www.a16z.files.wordpress.com/2015/10/financingsources_a16z.png'
p1350
aS'http://www.forbes.com/sites/baininsights/2015/08/21/agitators-vs-reformers-why-an-activist-thesis-makes-all-the-difference/'
p1351
aS'http://www.investopedia.com/articles/stocks/06/mergerarbitrage.asp'
p1352
aS'http://www.businessinsider.com/dell-emc-deal-2015-10'
p1353
aS'www.fortune.com/2015/07/01/hewlett-packard-filing-split/'
p1354
aS'www.fortune.com/2015/08/21/whats-next-for-pivotal/'
p1355
aS'www.a16z.com/tag/ma/'
p1356
aS'www.a16z.files.wordpress.com/2015/10/takeprivates_a16z.png'
p1357
aS'http://www.investopedia.com/terms/s/sec-form-prem14a.asp'
p1358
aS'http://www.bloomberg.com/news/articles/2015-10-12/dell-dusts-off-dot-com-curio-with-tracking-stock-in-emc-buyout'
p1359
aS'www.a16z.files.wordpress.com/2015/10/stockdrop_a16z.png'
p1360
aS'www.cloudcow.com/content/michael-dell-committed-vmwares-independence-what-about-competition'
p1361
aS'http://www.bloombergview.com/articles/2015-10-13/dell-will-issue-a-lot-of-not-quite-stock-to-pay-for-emc'
p1362
aS'www.dealbook.nytimes.com/2014/07/21/elliott-to-weigh-activist-options-for-emc-later-this-week/'
p1363
aS'http://www.idc.com/getdoc.jsp?containerId=prUS25666715'
p1364
aS'www.a16z.com/tag/virtual-machines/'
p1365
aS'http://www.bloomberg.com/bw/stories/2000-03-05/tread-carefully-when-you-buy-tracking-stocks'
p1366
aS'www.in.reuters.com/article/2015/10/12/emc-us-m-a-dell-idINKCN0S604320151012'
p1367
aS'www.blogs.barrons.com/techtraderdaily/2015/10/21/vmware-plunges-16-business-eaten-alive-by-the-public-cloud-says-street/'
p1368
aS'http://www.emc.com/about/news/press/2015/20151020-01.htm'
p1369
aS'www.files.shareholder.com/downloads/VMW/892576606x0x855449/3C7B88AC-335D-48A1-92B2-6956D942A5DD/Q3-15_Earnings_Slides.pdf'
p1370
aS'http://www.ft.com/intl/cms/s/0/fdc09152-356e-11e5-b05b-b01debd57852.html#axzz3pd1eOnPY'
p1371
aS'http://www.wsj.com/articles/lenovo-to-focus-on-integration-in-2015-not-more-acquisitions-1420616735'
p1372
aS'www.investor.gov/researching-managing-investments/shareholder-voting'
p1373
aS'www.morningstar.com/news/market-watch/TDJNMW_20151013149/vmware-stock-downgraded-on-dellemc-concerns.html'
p1374
aS'www.a16z.com/tag/big-company-innovation/'
p1375
aS'www.moodys.com/research/Moodys-places-Dells-Ba2-CFR-on-review-for-upgrade-following--PR_336324'
p1376
aS'http://www.msn.com/en-us/money/videos/there-is-a-go-shop-clause-emc-ceo/vi-AAfmx3e'
p1377
aS'www.a16z.files.wordpress.com/2015/10/dellrevenue_a16z.png'
p1378
aS'http://www.breakingviews.com/dell-emc-tracker-stock-gives-arbs-a-new-plaything/21220281.article'
p1379
aS'http://www.emc.com/about/news/press/2014/20141022-01.htm'
p1380
aS'http://www.bloomberg.com/news/articles/2013-07-24/michael-dell-silver-lake-boost-bid-10-cents-to-13-75-a-share'
p1381
aS'www.a16z.files.wordpress.com/2015/10/emcorg_a16z.png'
p1382
aS'http://www.wsj.com/articles/ciscos-chambers-says-not-interested-in-acquiring-emc-1411566728'
p1383
aS'www.a16z.files.wordpress.com/2015/10/dellemcorg_a16z.png'
p1384
aS'http://www.wsj.com/articles/activist-investor-pushes-emc-to-break-up-1405915262'
p1385
aS'http://www.investopedia.com/terms/b/breakup-fee.asp'
p1386
aS'www.a16z.files.wordpress.com/2015/10/dellorg_a16z.png'
p1387
aS'www.allthingsd.com/20130909/carl-icahn-ends-effort-to-take-control-of-dell/'
p1388
aS'http://www.bain.com/publications/articles/agitators-and-reformers.aspx'
p1389
aS'www.a16z.files.wordpress.com/2015/10/analystsvmcstock_a16z.png'
p1390
aS'http://www.wsj.com/articles/dell-files-confidentially-for-ipo-of-cybersecurity-unit-secureworks-1444410051'
p1391
aS'www.a16z.com/tag/activist-investorsshareholders/'
p1392
aS'www.twitter.com/cdixon/status/625095786175594496'
p1393
aS'www.seekingalpha.com/article/2903176-emc-at-a-truce-with-activist-investor-elliott-management'
p1394
aS'www.en.community.dell.com/dell-blogs/direct2dell/b/direct2dell/archive/2015/10/19/message-from-michael-dell-committed-to-vmware-independence-and-to-open-ecosystem'
p1395
aS'www.finance.yahoo.com/q?s=EMC&ql=1'
p1396
aS'www.news.investors.com/technology/101315-775359-vmware-shares-continue-to-fall-on-dell-emc-deal.htm'
p1397
aS'http://www.reuters.com/article/2015/01/12/emc-elliott-idUSL1N0UR0ZU20150112'
p1398
aS'http://www.cnbc.com/2015/05/19/icahn-nets-34-billion-on-apple.html'
p1399
aS'www.fortune.com/2015/10/20/emcs-new-cloud-unit/'
p1400
aS'www.blogs.wsj.com/cfo/2015/10/12/dell-may-avoid-tax-hit-on-deal-but-emc-shareholders-will-pay/'
p1401
aS'http://www.brianmadden.com/blogs/brianmadden/archive/2015/10/13/dell-announces-plan-to-buy-emc-and-vmware-here-s-our-full-analysis.aspx'
p1402
aS'http://www.mercurynews.com/business/ci_6626949'
p1403
aS'www.fortune.com/2015/08/31/emc-storage-future-vmware/'
p1404
aS'http://www.emc.com/about/news/press/2015/20151012-02.htm'
p1405
aS'www.linkedin.com/in/irvinchan'
p1406
aS'http://www.infoworld.com/article/2906362/data-center/dawn-of-the-data-center-operating-system.html'
p1407
aS'www.radar.oreilly.com/2014/12/why-the-data-center-needs-an-operating-system.html'
p1408
aS'www.a16z.files.wordpress.com/2015/04/aggregationofvirtualization_a16z.png'
p1409
aS'www.linkedin.com/in/vishalramin'
p1410
aS'www.a16z.com/2014/01/11/an-operating-system-for-your-mobile-supercomputer/'
p1411
aS'www.online.stanford.edu/instructors/dan-boneh'
p1412
aS'www.linkedin.com/pub/dan-boneh/20/990/8b5'
p1413
aS'www.seclab.stanford.edu/'
p1414
aS'www.a16z.com/2014/07/08/pmarca-tweetstorm-10-ways-to-damage-your-high-growth-tech-startup/'
p1415
aS'www.medium.com/tweet-stormed/16-ways-to-get-more-great-startups-c28bd5991fd3'
p1416
aS'www.a16z.com/tag/taxation/'
p1417
aS'www.a16z.com/tag/tweetstorms/'
p1418
aS'www.a16z.com/2014/06/13/pmarca-tweetstorm-timing-and-capital-in-tech-startups/'
p1419
aS'www.a16z.com/2015/06/15/pmarca-tweetstorm-in-just-3-tweets-options-for-bubble-might-pop/'
p1420
aS'www.twitter.com/trengriffin'
p1421
aS'www.twitter.com/pmarca/status/567194437755740160'
p1422
aS'www.a16z.com/tag/audio-essays/'
p1423
aS'www.a16z.com/2016/01/28/stack-fallacy/'
p1424
aS'http://www.adamgrant.net/#!originals/c1ckh'
p1425
aS'www.youtu.be/IPYeCltXpxw'
p1426
aS'www.a16z.com/2014/09/18/a16z-podcast-for-buzzfeed-sharing-is-the-metric-that-matters/'
p1427
aS'www.a16z.com/tag/full-stack-startups/'
p1428
aS'www.twitter.com/larsluv'
p1429
aS'www.a16z.com/2014/11/18/teespring/'
p1430
aS'http://www.glide.org/'
p1431
aS'www.a16z.files.wordpress.com/2013/12/asset1380567925.jpg?w=400&h=400&crop=1'
p1432
aS'www.a16z.com/2014/02/06/teespring-building-a-new-e-commerce-company/'
p1433
aS'www.blockspring.com/docs/sheets-quickstart-run'
p1434
aS'www.open.blockspring.com/test-socrata/09e7f5ce706527b78572ac77203a3010'
p1435
aS'www.open.blockspring.com/pkpp1233/get-full-text-news-about-topic'
p1436
aS'www.news.microsoft.com/bythenumbers/ms_numbers.pdf'
p1437
aS'www.open.blockspring.com/enterprise_registrations/new'
p1438
aS'www.open.blockspring.com/pkpp1233/16d4d46963e3534d7fb232ec54698c92'
p1439
aS'www.a16z.com/tag/balaji-s-srinivasan/'
p1440
aS'www.blockspring.com/'
p1441
aS'www.open.blockspring.com/pkpp1233/get-amazon-new-price-by-product-id'
p1442
aS'http://www.businessinsider.com/excel-partly-to-blame-for-trading-loss-2013-2'
p1443
aS'www.a16z.com/tag/apis/'
p1444
aS'www.a16z.com/2014/05/16/the-two-big-problems-with-thomas-pikettys-capital-in-the-twenty-first-century/'
p1445
aS'www.a16z.files.wordpress.com/2014/05/balaji14.jpg?w=400&h=400&crop=1'
p1446
aS'www.twitter.com/balajis'
p1447
aS'http://www.linkedin.com/in/balajissrinivasan'
p1448
aS'www.a16z.com/2014/09/24/opengov/'
p1449
aS'www.github.com/balajis'
p1450
aS'www.a16z.com/2014/11/17/the-end-of-ownership/'
p1451
aS'www.a16z.files.wordpress.com/2015/07/techno_girls.jpg'
p1452
aS'www.a16z.com/2012/09/06/disrupting-procter-gamble/'
p1453
aS'www.cdixon.org/2014/10/04/some-ideas-for-native-bitcoin-apps/'
p1454
aS'www.en.wikipedia.org/wiki/Complementary_currency'
p1455
aS'www.bitrated.com/'
p1456
aS'www.youtu.be/Hl7WT7mmS6U'
p1457
aS'http://www.lietaer.com/writings/books/the-future-of-money/'
p1458
aS'www.vinumeris.com/lighthouse'
p1459
aS'www.en.bitcoin.it/wiki/Smart_Property'
p1460
aS'www.szabo.best.vwh.net/idea.html'
p1461
aS'www.a16z.com/tag/who-is-satoshi-nakamoto/'
p1462
aS'www.streamium.io/'
p1463
aS'www.bitmesh.network/'
p1464
aS'www.bitcoin.org/bitcoin.pdf'
p1465
aS'www.blog.bitcoinfoundation.org/blocksize-economics/'
p1466
aS'http://www.ariannasimpson.com/blog/game-theory-assurance-contracts-and-crowdfunding-with-bitcoin'
p1467
aS'http://www.techrepublic.com/article/can-we-please-stop-talking-about-the-linux-desktop/'
p1468
aS'www.spectrum.ieee.org/tech-talk/computing/networks/the-bitcoin-for-is-a-coup'
p1469
aS'www.medium.com/faith-and-future/why-is-bitcoin-forking-d647312d22c1'
p1470
aS'www.a16z.com/tag/cryptocurrency/'
p1471
aS'http://www.newyorker.com/business/currency/inside-the-fight-over-bitcoins-future'
p1472
aS'www.a16z.com/tag/cars/'
p1473
aS'http://www.theguardian.com/careers/careers-blog/asimov-ex-machina-artificial-intelligence'
p1474
aS'http://www.amazon.com/Tom-Standage/e/B001H6N3PK'
p1475
aS'http://www.doc.ic.ac.uk/~mpsha/'
p1476
aS'www.getrevue.co/profile/azeem'
p1477
aS'www.a16z.com/tag/design/'
p1478
aS'www.a16z.com/tag/robotics/'
p1479
aS'www.a16z.com/tag/iot/'
p1480
aS'www.a16z.com/tag/internet-of-things/'
p1481
aS'http://www.harpercollins.com/9780062266705/machines-of-loving-grace'
p1482
aS'www.edge.org/conversation/john_markoff-the-next-wave'
p1483
aS'www.a16z.files.wordpress.com/2014/05/cumulativecashflow_a16zsaasprimer2.png'
p1484
aS'www.twitter.com/pmarca/status/456680681515413504'
p1485
aS'http://www.washingtonpost.com/blogs/the-switch/wp/2014/04/08/windows-xp-support-ends-today-but-its-still-used-by-everywhere-from-governments-to-atms/'
p1486
aS'www.a16z.files.wordpress.com/2014/05/cac.png'
p1487
aS'www.a16z.files.wordpress.com/2014/05/cacratios.png'
p1488
aS'www.a16z.files.wordpress.com/2014/05/billings_a16zsaasprimer.png'
p1489
aS'www.a16z.com/tag/charts/'
p1490
aS'www.blogs.wsj.com/cio/2013/09/09/the-saas-manifesto-navigating-the-departmentalization-of-it/'
p1491
aS'www.a16z.com/tag/valuation-and-valuations/'
p1492
aS'www.a16z.files.wordpress.com/2014/05/rr_a16zsaasprimer2.png'
p1493
aS'www.a16z.files.wordpress.com/2014/05/ltvcac.png'
p1494
aS'http://www.forentrepreneurs.com/saas-metrics-2/'
p1495
aS'www.a16z.files.wordpress.com/2014/05/margins.png'
p1496
aS'http://www.theverge.com/2015/4/8/8371131/youtube-paid-subscription-offline-video'
p1497
aS'http://www.geekwire.com/2015/amazon-prime-discourages-most-people-from-comparison-shopping-online/'
p1498
aS'http://www.inc.com/zal-bilimoria/mass-saas-invading-your-home.html'
p1499
aS'www.a16z.com/2014/05/19/saas-pricing-strategies/'
p1500
aS'http://www.forbes.com/sites/willburns/2015/05/20/if-the-amazon-dash-button-fails-it-will-still-succeed-in-normalizing-online-buying-behavior/'
p1501
aS'www.hbr.org/2002/09/pricing-and-the-psychology-of-consumption'
p1502
aS'http://www.businessinsider.com/envoy-raises-15-million-founder-larry-gadea-started-at-google-at-age-18-2015-6'
p1503
aS'www.blog.semilshah.com/2015/03/05/the-saasification-of-consumer/'
p1504
aS'www.a16z.files.wordpress.com/2013/12/asset1380671641.jpg?w=400&h=400&crop=1'
p1505
aS'www.a16z.com/2015/10/19/prenups-for-co-founders/'
p1506
aS'www.twitter.com/skupor'
p1507
aS'www.blog.zenefits.com/zenefits-utah-back-in-the-beehive-state/'
p1508
aS'www.business.utah.gov/news/utah-legislature-okays-online-insurance-and-hr-company-offerings/'
p1509
aS'http://www.bloombergview.com/articles/2015-11-19/square-turns-the-corner-after-a-pretty-shaky-ipo'
p1510
aS'www.a16z.com/tag/ipos/'
p1511
aS'www.a16z.files.wordpress.com/2015/11/squareipo_internalsummary-scrubbed.pdf'
p1512
aS'www.a16z.com/2014/07/02/disruption-roundup/'
p1513
aS'www.cdixon.org/2014/03/25/oculus/'
p1514
aS'http://www.wired.com/2015/08/vr-creative-process'
p1515
aS'www.a16z.com/tag/face-toy/'
p1516
aS'www.blog.optimizely.com/2015/08/20/marc-andreessen-talks-killer-robots-unicorns-future-of-tech/'
p1517
aS'www.linkedin.com/in/sakunthala-panditharatne-82315ba4'
p1518
aS'www.twitter.com/sknthla'
p1519
aS'www.linkedin.com/pub/kyle-russell/68/496/32a'
p1520
aS'www.twitter.com/kylebrussell'
p1521
aS'www.a16z.com/tag/agriculture/'
p1522
aS'www.a16z.com/2011/05/16/something-old-something-new-2/'
p1523
aS'www.a16z.com/2014/02/06/harvey-keitel-ceo/'
p1524
aS'www.a16z.com/2012/12/20/put-the-internet-to-work-for-you/'
p1525
aS'www.a16z.com/tag/academic-roundtable-2014/'
p1526
aS'www.a16z.com/tag/videos/'
p1527
aS'www.research.microsoft.com/en-us/people/mckinley/'
p1528
aS'www.a16z.files.wordpress.com/2013/12/asset1380387606.jpg?w=400&h=400&crop=1'
p1529
aS'www.a16z.com/2016/01/21/weiss-update/'
p1530
aS'www.twitter.com/W_ScottWeiss'
p1531
aS'www.a16z.com/2015/10/05/success-at-work-failure-at-home-2/'
p1532
aS'www.a16z.com/2015/03/12/lyft/'
p1533
aS'www.a16z.com/2015/03/03/toutapp/'
p1534
aS'www.a16z.com/2015/01/22/sensorification-of-the-enterprise/'
p1535
aS'www.a16z.com/2015/04/02/a16z-podcast-how-to-lead-not-manage-your-board/'
p1536
aS'www.a16z.com/tag/ces/'
p1537
aS'www.jeff.a16z.com/2013/07/22/people-marketplaces/'
p1538
aS'www.a16z.com/2014/06/16/unpacking-the-grocery-stack/'
p1539
aS'www.a16z.com/2014/06/16/people-marketplaces-take-on-one-of-the-last-great-e-commerce-opportunities-groceries/'
p1540
aS'www.genius.com/Rick-ross-hustlin-lyrics'
p1541
aS'www.techcrunch.com/2015/02/23/managing-tensions-in-online-marketplaces/'
p1542
aS'www.a16z.com/tag/product-management/'
p1543
aS'www.jeff.a16z.com/2012/01/18/a-recipe-for-growth-adding-layers-to-the-cake/'
p1544
aS'www.a16z.com/2011/10/06/management-quality-assurance/'
p1545
aS'www.techcrunch.com/contributor/geoffrey-woo/'
p1546
aS'www.a16z.com/2010/04/13/four-things-some-vcs-do-that-i-dont-like/'
p1547
aS'www.reddit.com/r/Nootropics'
p1548
aS'www.cdixon.org/2013/03/03/what-the-smartest-people-do-on-the-weekend-is-what-everyone-else-will-do-during-the-week-in-ten-years/'
p1549
aS'www.gobble.com/'
p1550
aS'http://www.wsj.com/articles/how-future-bitcoin-can-prevent-a-future-greece-1436744064'
p1551
aS'www.a16z.com/tag/securing-security-series/'
p1552
aS'http://www.wired.com/2014/11/countdown-to-zero-day-stuxnet/'
p1553
aS'www.a16z.com/tag/cyberattacks/'
p1554
aS'www.a16z.com/tag/hacked/'
p1555
aS'http://www.innogen.ac.uk/downloads/Innogen-Working-Paper-114_Final.pdf'
p1556
aS'www.a16z.com/2014/04/09/omada-health-behavior-change/'
p1557
aS'www.a16z.com/tag/bio-fund/'
p1558
aS'www.techcrunch.com/2014/04/03/after-five-years-of-bootstrapping-imgur-raises-40-million-from-andreessen-reddit/'
p1559
aS'www.hbr.org/2011/03/a-disruptive-solution-for-heal.html'
p1560
aS'www.a16z.com/tag/cloud-bio/'
p1561
aS'www.a16z.com/tag/computer-vision/'
p1562
aS'www.a16z.com/tag/digital-therapeutics/'
p1563
aS'www.folding.stanford.edu/'
p1564
aS'http://www.slideshare.net/a16z/software-is-eating-bio'
p1565
aS'www.twitter.com/CTZN5/status/654207706522365952'
p1566
aS'www.linkedin.com/pulse/marc-andreessen-product-market-fit-startups-marc-andreessen'
p1567
aS'www.a16z.com/tag/digital-health/'
p1568
aS'http://www.itif.org/content/us-industry-funded-life-sciences-rd-investment-totaled-906-billion-2013-accounting-46-percen'
p1569
aS'http://www.barrypopik.com/index.php/new_york_city/entry/half_the_money_spent_on_advertising_is_wasted_but_no_one_knows_which_half'
p1570
aS'www.blog.benchling.com/benchling-research-platform/'
p1571
aS'www.a16z.com/tag/slideshows/'
p1572
aS'www.a16z.com/tag/state-of-vc/'
p1573
aS'www.a16z.com/tag/online-video/'
p1574
aS'www.a16z.com/2011/10/17/the-new-possibilities/'
p1575
aS'www.a16z.com/2013/12/18/enterprise-hacker-rises/'
p1576
aS'www.a16z.com/2014/09/08/raising-money-and-valuing-startups-what-happens-when-things-dont-go-as-planned/'
p1577
aS'www.a16z.files.wordpress.com/2015/05/cranney_valueframework.jpg'
p1578
aS'www.a16z.com/tag/sales/'
p1579
aS'www.saastr.com/2014/05/23/inbound-or-outbound-sales-the-answer-is-yes/'
p1580
aS'www.a16z.files.wordpress.com/2015/05/cranney_valueprop.jpg'
p1581
aS'http://www.aiccbox.org/meeting/presentations_s05/Neil_Rackham.pdf'
p1582
aS'www.a16z.files.wordpress.com/2014/05/cranney_whyvscompetition.jpg'
p1583
aS'www.a16z.files.wordpress.com/2015/05/opswareexample.png'
p1584
aVwww.a16z.com//a16z.files.wordpress.com/2015/05/cranney_developvalueframework.jpg
p1585
aS'www.a16z.files.wordpress.com/2014/05/cranney_salesprocess.jpg'
p1586
aS'http://www.bhorowitz.com/meet_the_new_enterprise_customer_he_s_a_lot_like_the_old_enterprise_customer'
p1587
aS'www.medium.com/medium-long/4c59524d650d'
p1588
aS'www.a16z.com/tag/sales-bootcamp-series/'
p1589
aS'www.twitter.com/pmarca/status/471362637469474816'
p1590
aS'www.a16z.com/tag/mark-cranney/'
p1591
aS'www.medium.com/tweet-stormed'
p1592
aVwww.a16z.com/2015/12/18/16-mobile-theses/ \u200e
p1593
aS'http://www.wired.com/2014/01/defense-listicle-list-article/'
p1594
aS'www.a16z.com/tag/recaps-2015/'
p1595
aS'www.a16z.com/2015/01/22/online-video/'
p1596
aS'www.a16z.com/2013/10/14/a-clarification-and-an-apology/'
p1597
aS'www.a16z.com/2015/01/22/failure/'
p1598
aS'www.a16z.com/2015/01/22/cloud-client-computing/'
p1599
aS'www.a16z.files.wordpress.com/2014/09/amazon-cycle.jpg'
p1600
aS'www.a16z.files.wordpress.com/2014/09/16.png'
p1601
aS'www.a16z.files.wordpress.com/2014/09/2.png'
p1602
aS'www.a16z.files.wordpress.com/2014/09/4.png'
p1603
aS'www.a16z.files.wordpress.com/2014/09/14.png'
p1604
aS'www.a16z.files.wordpress.com/2014/09/9.png'
p1605
aS'www.a16z.files.wordpress.com/2014/09/1.png'
p1606
aS'www.a16z.files.wordpress.com/2014/09/3.png'
p1607
aS'www.a16z.files.wordpress.com/2014/09/6.png'
p1608
aS'www.a16z.files.wordpress.com/2014/09/8.png'
p1609
aS'www.a16z.files.wordpress.com/2014/09/10.png'
p1610
aS'www.a16z.files.wordpress.com/2014/09/11.png'
p1611
aS'www.a16z.files.wordpress.com/2014/09/15.png'
p1612
aS'www.a16z.files.wordpress.com/2014/09/5.png'
p1613
aS'www.a16z.files.wordpress.com/2014/09/7.png'
p1614
aS'www.a16z.files.wordpress.com/2014/09/18.png'
p1615
aS'www.a16z.files.wordpress.com/2014/09/12.png'
p1616
aS'www.a16z.files.wordpress.com/2014/09/13.png'
p1617
aS'www.a16z.files.wordpress.com/2014/09/17.png'
p1618
aS'www.rapgenius.com/Wiz-khalifa-phone-numbers-lyrics'
p1619
aS'www.cdixon.org/2009/09/19/climbing-the-wrong-hill/%20'
p1620
aS'www.cdixon.org/2009/11/14/pitch-yourself-not-your-idea/'
p1621
aS"http://www.oaktreecapital.com/MemoTree/It's%20All%20a%20Big%20Mistake_06_20_12.pdf"
p1622
aS'http://www.logomaker.com/blog/2013/12/16/9-inspirational-quotes-startups-small-business-chris-dixon/'
p1623
aS'www.25iq.com/2015/01/15/a-dozen-things-ive-learned-from-chris-dixon-about-venture-capital-and-startups/'
p1624
aS'www.gigaom.com/2010/05/28/chris-dixon/'
p1625
aS'www.cdixon.org/2009/08/22/why-you-shouldnt-keep-your-startup-idea-secret/'
p1626
aS'www.a16z.com/2014/07/21/a-dozen-things-ive-learned-from-marc-andreessen/'
p1627
aS'www.cdixon.org/2010/04/03/size-markets-using-narratives-not-numbers/'
p1628
aS'www.cdixon.org/2010/09/12/if-you-arent-getting-rejected-on-%20%20a-daily-basis-your-goals-arent-ambitious-enough/'
p1629
aS'www.github.com/charlesfeng/startup-school-2013/blob/master/ChrisDixon.md'
p1630
aS'www.a16z.com/2012/05/18/is-now-the-time-to-hire-mbas/'
p1631
aS'www.avc.com/2014/12/some-thoughts-on-founder-liquidity/'
p1632
aS'www.thisweekinstartups.com/chris-dixon-general-partner-at-andreessen-horowitz-twist-e336/'
p1633
aS'www.cdixon.org/2011/06/20/foundermarket-fit/'
p1634
aS'www.cdixon.org/2009/09/19/climbing-the-wrong-hill/'
p1635
aS'www.25iq.com/2014/04/05/the-best-venture-capitalists-harvest-optionality-dealing-with-risk-uncertainty-and-ignorance/'
p1636
aS'www.a16z.com/2015/03/11/a16z-podcast-what-the-apple-watch-is-and-isnt/'
p1637
aS'www.medium.com/@cdixon/a16z-leads-investment-in-ringly-a9160eff3c20'
p1638
aS'www.a16z.com/2015/03/18/a16z-podcast-building-a-better-board/'
p1639
aS'http://www.horsleybridge.com/'
p1640
aS'www.a16z.files.wordpress.com/2015/06/strikeouts-fromhorselydata_a16z.png'
p1641
aS'www.a16z.files.wordpress.com/2015/06/powerlaw-fromhorsleydata_a16z.png'
p1642
aS'www.25iq.com/2014/07/13/a-dozen-things-ive-learned-from-peter-thiel/'
p1643
aS'www.25iq.com/2013/09/09/a-dozen-things-ive-learned-from-bill-gurley-about-investing-and-business/'
p1644
aS'www.en.wikipedia.org/wiki/Loss_aversion'
p1645
aS'www.a16z.files.wordpress.com/2015/06/dollarweighted-fromhorselydata_a16z.png'
p1646
aS'www.turtletrader.com/pdfs/babe-ruth.pdf'
p1647
aS'www.a16z.files.wordpress.com/2015/06/homeruns-fromhorselydata_a16z.png'
p1648
aS'www.ben-evans.com/benedictevans/2015/8/19/how-many-pictures'
p1649
aS'www.ben-evans.com/benedictevans/2015/9/1/permissionless-innovation'
p1650
aS'www.ben-evans.com/benedictevans/2015/9/12/subscription-iphones'
p1651
aS'www.cdixon.org/2015/05/12/exponential-curves-feel-gradual-and-then-sudden/'
p1652
aS'www.blogs.reuters.com/breakingviews/2015/04/09/guest-view-whats-holding-technology-ma-back/'
p1653
aS'www.a16z.files.wordpress.com/2014/09/screen-shot-2014-09-26-at-1-44-39-pm.png'
p1654
aS'www.a16z.files.wordpress.com/2014/09/screen-shot-2014-09-26-at-1-42-18-pm.png'
p1655
aS'www.a16z.files.wordpress.com/2014/09/screen-shot-2014-09-26-at-1-39-20-pm.png'
p1656
aS'www.dealbook.nytimes.com/2014/09/25/marc-andreessen-sounds-warning-on-start-ups-burning-cash/'
p1657
aS'http://www.vox.com/2014/6/26/5837638/the-ipo-is-dying-marc-andreessen-explains-why'
p1658
aS'http://www.bothsidesofthetable.com/2012/09/05/the-truth-about-convertible-debt-at-startups-and-the-hidden-terms-you-didnt-understand/'
p1659
aS'www.online.wsj.com/articles/venture-capitalist-sounds-alarm-on-silicon-valley-risk-1410740054'
p1660
aS'www.blogs.wsj.com/accelerators/2014/09/08/scott-kupor-how-to-stay-on-the-winning-side-of-valuation/'
p1661
aS'www.twitter.com/vkhosla/status/515509366301409280'
p1662
aS'www.en.wikipedia.org/wiki/Pari_passu'
p1663
aS'www.avc.com/2014/09/burn-baby-burn/'
p1664
aS'www.venturehacks.com/articles/cap-table'
p1665
aS'http://www.investopedia.com/terms/f/forwardpe.asp'
p1666
aS'www.a16z.files.wordpress.com/2014/10/techunderperformedmarketlast5years.png'
p1667
aS'www.a16z.files.wordpress.com/2014/10/techislaggingwhenadjustedforgrowth1.png'
p1668
aS'www.video.cnbc.com/gallery/?video=3000317987#.'
p1669
aS'www.mashable.com/2014/10/09/carl-icahn-apple-letter-annotated/'
p1670
aS'www.a16z.files.wordpress.com/2014/10/spitindexhastrailedindustrialsforyears.png'
p1671
aS'www.a16z.files.wordpress.com/2014/10/fewlargecapleadersinternetoutperforms.png'
p1672
aS'http://www.investopedia.com/terms/p/pegratio.asp'
p1673
aS'http://www.marketwatch.com/story/elliott-management-sends-letter-to-board-of-directors-of-emc-corporation-2014-10-08'
p1674
aS'www.twitter.com/pmarca/status/519916970003537920'
p1675
aS'www.video.cnbc.com/gallery/?video=3000318572'
p1676
aS'http://www.forbes.com/sites/ryanmac/2015/04/07/after-investing-in-a-local-services-startup-google-turns-arounds-and-builds-a-competitor/'
p1677
aS'www.techcrunch.com/2012/07/23/vmware-buys-nicira-for-1-26-billion-and-gives-more-clues-about-cloud-strategy/'
p1678
aS'www.blog.sfgate.com/techchron/2014/04/10/tinyco-thinks-big-with-family-guy-mobile-game/'
p1679
aS'http://www.infoworld.com/article/2632056/m-a/update--oracle-agrees-to-buy-sun-for--7-4b.html'
p1680
aS'http://www.forbes.com/sites/briansolomon/2014/03/25/facebook-buys-oculus-virtual-reality-gaming-startup-for-2-billion/'
p1681
aS'www.a16z.files.wordpress.com/2015/04/corpdev_a16z.png'
p1682
aS'www.cardnotpresent.com/news/cnp-news-april14/Equifax,_Jumio_Partner_for_Mobile_Wallet_Conversion_and_Verification_-_April_7,_2014/'
p1683
aS'www.paulgraham.com/corpdev.html#f1n'
p1684
aS'www.twitter.com/pmarca/status/519924059929591808'
p1685
aS'www.medium.com/tweet-stormed/evidence-it-s-not-a-tech-bubble-815eb69bd623'
p1686
aS'www.genius.com/Outkast-ms-jackson-lyrics'
p1687
aS'www.genius.com/Ll-cool-j-going-back-to-cali-lyrics'
p1688
aS'www.a16z.com/2014/05/09/a16z-podcast-valuing-todays-fast-growing-software-companies/'
p1689
aS'www.fortune.com/2015/06/15/andreessen-horowitz-why-were-not-in-the-next-tech-bubble/'
p1690
aS'http://www.bloombergview.com/articles/2015-07-06/there-is-no-tech-bubble-still-be-worried-'
p1691
aS'www.qz.com/429315/all-american-tech-unicorns-put-together-barely-make-one-facebook/'
p1692
aS'www.marginalrevolution.com/marginalrevolution/2015/08/is-wechat-the-future.html'
p1693
aS'http://www.digitopoly.org/2015/06/16/the-shift-from-public-to-private-markets-in-tech-funding/'
p1694
aS'www.a16z.com/tag/lars-sales/'
p1695
aS'http://www.slideshare.net/a16z/state-of-49390473/15-15Its_different_this_timeBut_its'
p1696
aS'www.twitter.com/paulg/status/610573948334534657'
p1697
aS'http://www.nytimes.com/2015/07/02/technology/personaltech/as-more-tech-start-ups-stay-private-so-does-the-money.html'
p1698
aS'http://www.nytimes.com/2015/07/02/business/dealbook/a-venture-capital-giant-says-bubble-what-bubble.html'
p1699
aS'www.en.wikipedia.org/wiki/PC_game'
p1700
aS'http://www.nytimes.com/2015/12/18/opinion/the-2015-sidney-awards.html'
p1701
aS'www.a16z.com/2014/12/03/a16z-podcast-securitys-wakeup-call/'
p1702
aS'http://www.linkedin.com/in/johnmjack'
p1703
aS'http://www.linkedin.com/pub/anna-soliveres/8/172/a35'
p1704
aS'http://www.linkedin.com/pub/shannon-callahan/0/a6/49a'
p1705
aS'www.twitter.com/laurenberson'
p1706
aS'http://www.linkedin.com/in/laurenberson'
p1707
aS'http://www.linkedin.com/pub/amy-berliner/2/706/a1a/'
p1708
aS'www.linkedin.com/in/erinwinkler'
p1709
aS'http://www.linkedin.com/pub/nicole-conner/2a/612/408'
p1710
aS'http://www.linkedin.com/pub/alyssa-del-bene/42/646/64b/'
p1711
aS'www.linkedin.com/pub/valentina-marzorati/4a/6b7/287'
p1712
aS'http://www.linkedin.com/pub/margit-wennmachers/0/b18/613/'
p1713
aS'www.a16z.com/2012/09/26/former-dc-mayor-adrian-fenty-joins-andreessen-horowitz-as-special-advisor/'
p1714
aS'www.twitter.com/wennmachers'
p1715
aS'www.a16z.com/2014/09/18/a16z-podcast-reinventing-media/'
p1716
aS'http://www.linkedin.com/in/davejagoda'
p1717
aS'www.a16z.com/2014/06/02/a16z-podcast-the-apple-wwdc-2014-deep-dive/'
p1718
aS'www.twitter.com/davejagoda'
p1719
aS'http://www.linkedin.com/in/kindramason/en'
p1720
aS'http://www.linkedin.com/pub/michelle-mundy/29/a68/948'
p1721
aS'http://www.linkedin.com/pub/minerva-munoz/3/671/350/'
p1722
aS'http://www.linkedin.com/pub/elizabeth-ocken/4/61b/ba1'
p1723
aS'www.linkedin.com/in/caitlinroberson'
p1724
aS'www.twitter.com/stacydamico'
p1725
aS'http://www.linkedin.com/in/stacydamico'
p1726
aS'www.linkedin.com/in/jenniferkonde'
p1727
aS'http://www.linkedin.com/in/elizabethweil/'
p1728
aS'www.twitter.com/elizabeth'
p1729
aS'www.linkedin.com/in/lauragravley'
p1730
aS'www.linkedin.com/profile/view?id=AAkAAAEkHtABz6xRY33i1Hk_DcK1pCLWlp6isec&authType=NAME_SEARCH&authToken=9_yC&locale=en_US&trk=tyah&trkInfo=clickedVertical%3Amynetwork%2CclickedEntityId%3A19144400%2CauthType%3ANAME_SEARCH%2Cidx%3A1-1-1%2CtarId%3A1447715534256%2Ctas%3Avivian%20br'
p1731
aS'http://www.linkedin.com/in/karinamalec'
p1732
aS'http://www.linkedin.com/in/morganbeller'
p1733
aS'www.twitter.com/beller'
p1734
aS'http://www.linkedin.com/pub/mark-cranney/0/925/a61'
p1735
aS'www.twitter.com/mdcranney'
p1736
aS'www.twitter.com/naithanjones'
p1737
aS'http://www.linkedin.com/in/naithanjones/en'
p1738
aS'http://www.linkedin.com/pub/molly-grace/47/177/2b2/'
p1739
aS'http://www.linkedin.com/in/marvinzamora'
p1740
aS'http://www.linkedin.com/pub/jeff-stump/0/171/9a0'
p1741
aS'http://www.linkedin.com/pub/meredith-donahue/39/668/9a2'
p1742
aS'http://www.linkedin.com/pub/tina-ferguson/2/2a5/510'
p1743
aS'http://www.linkedin.com/pub/bill-krause/39/b65/588'
p1744
aS'www.twitter.com/ericbthomas'
p1745
aS'http://www.linkedin.com/in/ericthomas99/'
p1746
aS'www.twitter.com/jfbuss'
p1747
aS'http://www.linkedin.com/in/jaimiebuss'
p1748
aS'http://www.linkedin.com/pub/amanda-mulay/32/497/7a3/en'
p1749
aS'www.twitter.com/Mulay_SF'
p1750
aS'http://www.linkedin.com/in/lynnrudolph'
p1751
aS'www.linkedin.com/in/schang'
p1752
aS'www.twitter.com/sychang'
p1753
aS'http://www.linkedin.com/in/jessicaleighhansen/'
p1754
aS'www.twitter.com/miyer'
p1755
aS'www.linkedin.com/in/maheshiyer'
p1756
aS'http://www.linkedin.com/pub/erin-r-grody/4a/a23/1aa/'
p1757
aS'www.twitter.com/eringrody'
p1758
aS'http://www.linkedin.com/pub/jessica-peterson/64/b32/b7a'
p1759
aS'http://www.linkedin.com/in/ellenltunoa/'
p1760
aS'www.linkedin.com/in/emilygraff'
p1761
aS'www.twitter.com/emiliejayg'
p1762
aS'http://www.linkedin.com/in/morganbender/'
p1763
aS'http://www.linkedin.com/pub/arsho-avetian/0/404/616'
p1764
aS'http://www.linkedin.com/in/jnyatta'
p1765
aS'www.twitter.com/julez137'
p1766
aS'http://www.linkedin.com/in/robinrissocasey'
p1767
aS'http://www.linkedin.com/in/tawnyholguin'
p1768
aS'http://www.linkedin.com/pub/erika-herrera/60/721/299'
p1769
aS'www.uk.linkedin.com/pub/amy-kalokerinos/9/250/243'
p1770
aS'http://www.linkedin.com/pub/mark-mcandrew/7/b60/b76'
p1771
aS'www.twitter.com/BartDessaint'
p1772
aS'http://www.linkedin.com/pub/bart-dessaint/18/b03/a51'
p1773
aS'www.linkedin.com/in/taylormcfadden'
p1774
aS'http://www.linkedin.com/in/mattoberhardt'
p1775
aS'www.twitter.com/obes00'
p1776
aS'http://www.linkedin.com/in/carolinehorn'
p1777
aS'www.a16z.com/2012/06/27/software-is-eating-the-world-and-will-help-to-feed-it/'
p1778
aS'www.twitter.com/johnofa'
p1779
aS'www.john.a16z.com/2013/06/21/where-orwell-got-it-wrong/'
p1780
aS'www.a16z.com/2013/01/31/whos-on-call/'
p1781
aS'www.a16z.com/2012/10/23/hire-different/'
p1782
aS'http://www.linkedin.com/pub/john-o-farrell/0/52/b72/'
p1783
aS'www.a16z.com/2012/06/12/selling-the-company/'
p1784
aS'www.linkedin.com/pub/julie-johnson/10/61/a92'
p1785
aS'www.linkedin.com/pub/kristina-graci-deluna/0/335/a0b'
p1786
aS'http://www.linkedin.com/pub/leila-abu-sharr/53/802/a40'
p1787
aS'http://www.linkedin.com/in/jenzimmerer'
p1788
aS'www.twitter.com/larryerwin'
p1789
aS'www.linkedin.com/in/larryerwin'
p1790
aS'http://www.linkedin.com/pub/lisa-moreno/6/bb/90'
p1791
aS'http://www.linkedin.com/pub/megan-kristalyn/13/213/3b8'
p1792
aS'http://www.linkedin.com/in/sunilchokshi'
p1793
aS'http://www.linkedin.com/pub/austin-guzman/1a/b61/117'
p1794
aS'www.larrysummers.com/category/blog/'
p1795
aS'www.larrysummers.com/category/ft-columns-2/'
p1796
aS'www.larrysummers.com/category/in-the-news/'
p1797
aS'www.linkedin.com/in/lawrence-summers-b9747a11'
p1798
aS'www.linkedin.com/pub/dalton-turay/62/9a5/83'
p1799
aS'www.linkedin.com/in/ken-coleman-1464922'
p1800
aS'http://www.bhorowitz.com/ken_coleman'
p1801
aS'http://www.linkedin.com/in/christophermlyons/'
p1802
aS'www.twitter.com/chrislyons'
p1803
aS'http://www.linkedin.com/in/shawnconway/'
p1804
aS'http://www.linkedin.com/in/malinkawalaliyadde'
p1805
aS'http://www.linkedin.com/pub/gia-scinto/1/14b/b86/'
p1806
aS'www.twitter.com/gscinto'
p1807
aS'http://www.linkedin.com/in/hasleton/'
p1808
aS'www.twitter.com/pjhasleton'
p1809
aS'www.twitter.com/mor_rob'
p1810
aS'http://www.linkedin.com/pub/robert-moreno/0/334/8b9'
p1811
aS'http://www.linkedin.com/pub/rod-johnson/0/a1/68b'
p1812
aS'www.linkedin.com/in/spencerrascoff'
p1813
aS'www.linkedin.com/in/joseguardado'
p1814
aS'www.linkedin.com/profile/view?id=163977594'
p1815
aS'http://www.linkedin.com/in/lrosano'
p1816
aS'http://www.linkedin.com/pub/ryan-ward/5/2aa/30a/'
p1817
aS'www.twitter.com/garcegarce'
p1818
aS'http://www.linkedin.com/pub/grace-ellis/2/812/9b1'
p1819
aS'http://www.linkedin.com/in/khemmerling/'
p1820
aS'http://www.linkedin.com/pub/parker-brown/20/5a/694/'
p1821
aS'www.linkedin.com/pub/marci-barbera/1/217/908'
p1822
aS'http://www.linkedin.com/in/christinazeidan'
p1823
aS'www.twitter.com/shanaglick'
p1824
aS'www.linkedin.com/in/laurashores'
p1825
aS'http://www.linkedin.com/in/alexislakes'
p1826
aS'www.linkedin.com/pub/nigel-robinson/a3/494/32b'
p1827
aS'http://www.linkedin.com/pub/brad-kern/0/395/274/en'
p1828
aS'http://www.linkedin.com/in/kimmilosevich'
p1829
aS'www.twitter.com/kimbatronic'
p1830
aS'www.a16z.com/tag/recaps-2014/'
p1831
aS'www.a16z.com/tag/best-of/'
p1832
aS'www.a16z.com/2012/05/11/the-ceos-weekly-checklist/'
p1833
aS'www.a16z.com/2014/06/13/this-is-probably-a-good-time-to-say-that-i-dont-believe-robots-will-eat-all-the-jobs/'
p1834
aS'www.a16z.com/2013/05/23/its-time-for-lyft-off-2/'
p1835
aS'www.a16z.com/2014/03/12/from-thermostats-to-driverless-cars-finding-structure-in-an-unstructured-world/'
p1836
aS'www.a16z.com/2013/10/19/head-toward-the-light/'
p1837
aS'www.fortune.com/'
p1838
aS'www.a16z.com/tag/board-matters-series/'
p1839
aS'www.a16z.files.wordpress.com/2014/09/gerrielliott.jpg'
p1840
aS'http://www.niemanlab.org/2015/12/the-podcasting-scene-will-explode/'
p1841
aS'www.venturebeat.com/2015/04/03/10-tech-podcasts-you-should-listen-to-now/'
p1842
aS'http://www.forbes.com/sites/briansolomon/2015/10/12/the-12-best-podcasts-for-entrepreneurs/'
p1843
aS'www.a16z.files.wordpress.com/2014/02/krause6.jpg'
p1844
aS'http://www.amazon.com/Curious-Mind-Secret-Bigger-Life/dp/147673075X/ref=tmm_hrd_swatch_0?_encoding=UTF8&sr=1-1&qid=1432583531'
p1845
aS'www.a16z.com/tag/management-leadership/'
p1846
aS'www.kickstarter.com/projects/881308232/only-on-kickstarter-the-leaders-guide-by-eric-ries'
p1847
aS'www.theleanstartup.com/principles'
p1848
aS'www.a16z.com/tag/lean-startups/'
p1849
aS'http://www.startuplessonslearned.com/'
p1850
aS'www.a16z.com/2015/07/04/tweetstormed/'
p1851
aS'www.a16z.com/2015/03/30/a16z-podcast-securitys-painful-prominence-and-why-there-is-no-turning-back/'
p1852
aS'www.a16z.com/2014/09/12/a16z-podcast-secrets-power-laws-and-technology-the-ideas-of-zero-to-one/'
p1853
aS'www.a16z.files.wordpress.com/2013/12/lion.jpg'
p1854
aS'www.a16z.com/article/lion-platform-lesson/'
p1855
aVwww.a16z.com/news.rapgenius.com/Todd-lutwak-managing-platforms-is-a-human-art-lyrics>
p1856
aS'www.a16z.files.wordpress.com/2013/12/dogs.jpg'
p1857
aS'http://www.lyft.me/'
p1858
aS'www.homejoy.com/'
p1859
aS'www.yourmechanic.com/'
p1860
aS'http://www.side.cr/'
p1861
aS'www.instacart.com/store'
p1862
aS'www.taskrabbit.com/'
p1863
aS'www.dogvacay.com/'
p1864
aS'www.gigwalk.com/'
p1865
aS'www.zaarly.com/san-francisco'
p1866
aS'www.genius.com/Prince-the-future-lyrics'
p1867
aS'www.a16z.com/tag/3rd-mobile-os/'
p1868
aS'www.a16z.com/2015/01/05/a16z-podcast-why-the-datacenter-needs-an-operating-system/'
p1869
aS'www.a16z.com/2015/02/06/third-mobile-os-2/'
p1870
aS'www.a16z.com/2014/08/15/a16z-podcast-the-topic-thats-lasted-the-entire-history-of-computing-bundling-and-unbundling/'
p1871
aS'www.ben-evans.com/benedictevans/2014/7/10/unbundling-innovation'
p1872
aS'www.a16z.com/2014/06/25/pmarca-tweetstorm-unbundling-and-rebundling/'
p1873
aS'http://www.nytimes.com/2008/02/19/technology/19iht-freebie.1.10175111.html?_r=0'
p1874
aS'www.investor.tivo.com/phoenix.zhtml?c=106292&p=irol-newsArticle&ID=1828030'
p1875
aS'www.variety.com/2015/digital/news/tivo-files-patent-infringement-lawsuit-against-samsung-1201588124/'
p1876
aS'www.a16z.com/tag/tv/'
p1877
aS'www.a16z.com/tag/go-to-market/'
p1878
aS'http://www.forbes.com/sites/valleyvoices/2015/07/22/sales-compensation-beware-you-get-what-you-ask-for/'
p1879
aS'www.a16z.com/tag/compensation/'
p1880
aS'www.a16z.com/tag/hiring/'
p1881
aS'www.techcrunch.com/2015/05/29/to-clean-up-your-startups-b-s-bring-sales-into-the-leadership-team/'
p1882
aS'http://www.forbes.com/sites/valleyvoices/2014/12/16/managing-your-vp-of-sales-if-its-painful-its-going-well/'
p1883
aS'www.a16z.com/tag/hr/'
p1884
aS'http://www.gsb.stanford.edu/faculty-research/faculty/peter-levine'
p1885
aS'www.blog.detour.com/introducing-progressive-equity/'
p1886
aS'www.a16z.com/tag/liquidity/'
p1887
aS'www.medium.com/@barmstrong/improving-equity-compensation-at-coinbase-8749979409c3'
p1888
aS'www.fortune.com/2015/03/23/pinterest-employee-taxes/'
p1889
aS'http://www.internetismyreligion.com/?recruiter_id=12079'
p1890
aS'www.vimeo.com/107065249'
p1891
aS'www.a16z.com/tag/social-entrepreneurship/'
p1892
aS'www.a16z.com/tag/impact-investing/'
p1893
aS'www.a16z.com/tag/disruption/'
p1894
aS'www.storify.com/nikcub/balajis-on-full-stack-startups'
p1895
aS'www.a16z.com/2014/03/16/full-stack-startups/'
p1896
aS'www.soundcloud.com/a16z/a16z-podcast-the-rise-of-full'
p1897
aS'www.medium.com/tweet-stormed/disruption-theory-and-the-brilliance-of-clay-christensen-dfceeb0d93c3'
p1898
aS'www.twitter.com/pmarca/status/539825429947744257'
p1899
aS'www.stratechery.com/2013/clayton-christensen-got-wrong/'
p1900
aS'www.www2.deloitte.com/us/en/pages/strategy/articles/the-innovators-manifesto.html'
p1901
aS'www.hbr.org/1995/01/disruptive-technologies-catching-the-wave'
p1902
aS'www.dupress.com/articles/disruptive-innovation-theory-lepore-response/'
p1903
aS'http://www.internetismyreligion.com/'
p1904
aS'www.medium.com/tweet-stormed/alignment-of-incentives-between-startup-teams-and-investors-a7c69bd6ce3d'
p1905
aS'www.twitter.com/pmarca/status/580497428811538433'
p1906
aS'www.a16z.com/2014/04/22/what-corporate-boards-can-learn-from-delaware/'
p1907
aS'www.a16z.com/tag/interviewing/'
p1908
aS'www.a16z.com/tag/recruiting/'
p1909
aS'http://www.forbes.com/sites/valleyvoices/2015/09/15/the-zero-b-s-method-to-recruiting-a-killer-sales-force/'
p1910
aS'www.fortune.com/2013/10/24/how-to-compete-with-amazon/'
p1911
aS'www.a16z.com/tag/retail/'
p1912
aS'www.jeff.a16z.com/2012/11/15/e-commerce-2-0/'
p1913
aS'www.smile.amazon.com/SPIN-Selling-Neil-Rackham/dp/0070511136/ref=asap_bc?ie=UTF8'
p1914
aS'www.en.wikipedia.org/wiki/Vaporware'
p1915
aS'www.twitter.com/stevesi'
p1916
aS'www.genius.com/Pusha-t-hold-on-lyrics'
p1917
aS'www.twitter.com/jmspool/status/486485517945831424%20'
p1918
aS'www.twitter.com/pmarca/status/452156739274551296'
p1919
aS'www.blogs.wsj.com/venturecapital/2014/04/08/andreessen-beware-non-silicon-valley-investors-bearing-high-valuations/'
p1920
aS'www.hbr.org/2012/10/the-true-measures-of-success'
p1921
aS'http://www.amazon.com/The-Hard-Thing-About-Things/dp/0062273205'
p1922
aS'www.fortune.com/2013/02/15/transcript-the-keys-to-andreessen-horowitzs-success/'
p1923
aS'http://www.bhorowitz.com/why_we_prefer_founding_ceos'
p1924
aS'http://www.bhorowitz.com/the_case_for_the_fat_startup'
p1925
aS'http://www.forbes.com/sites/jjcolao/2014/03/06/ben-horowitz-gets-real-you-laid-off-people-because-you-f-ed-up/'
p1926
aS'www.techcrunch.com/2014/03/04/a-qa-with-ben-horowitz-on-his-new-book-the-hard-things-about-hard-things/'
p1927
aS'www.25iq.com/2014/08/31/a-dozen-things-ive-learned-from-bill-campbell/'
p1928
aS'www.time.com/3818203/ben-horowitz-the-struggle/'
p1929
aS'http://www.fastcompany.com/3027341/bottom-line/super-investor-ben-horowitz-on-abandoning-your-formulas-for-success'
p1930
aS'www.blog.girishrao.me/2014/03/07/ben-horowitz-on-conflict/'
p1931
aS'http://www.salon.com/2014/03/23/how_to_end_the_tech_culture_wars_ben_horowitz_on_the_future_of_the_internet_economy/'
p1932
aS'http://www.bloomberg.com/bw/stories/2001-04-15/the-last-days-of-net-mania'
p1933
aS'http://www.washingtonpost.com/blogs/on-leadership/wp/2014/03/04/the-consigliere-of-silicon-valley-an-interview-with-ben-horowitz/'
p1934
aS'www.25iq.com/2014/06/14/a-dozen-things-ive-learned-from-marc-andreessen/'
p1935
aS'http://www.forbes.com/sites/carminegallo/2014/04/29/your-story-is-your-strategy-says-vc-who-backed-facebook-and-twitter/'
p1936
aS'www.25iq.com/2014/07/05/a-dozen-things-ive-learned-from-fred-wilson/'
p1937
aS'www.25iq.com/2015/07/05/a-dozen-things-ive-learned-from-ben-horowitz-about-management-investing-and-business/'
p1938
aS'www.rap.genius.com/Drake-0-to-100-the-catch-up-lyrics#note-3271834'
p1939
aS'www.soundcloud.com/chr1slyons/a16z-podcast'
p1940
aS'www.a16z.com/tag/shannon-schiltz/'
p1941
aS'www.techcrunch.com/2014/06/24/rapper-divine-on-his-music-video-tribute-to-new-friend-ben/'
p1942
aS'www.a16z.com/tag/a16z-summer-school/'
p1943
aS'www.rapgenius.com/Divine-the-4th-letter-venture-capitalist-like-ben-horowitz-lyrics'
p1944
aS'www.a16z.com/2014/10/29/how-mobile-is-enabling-tech-to-outgrow-the-tech-industry/'
p1945
aS'www.a16z.com/2014/08/20/on-big-ideas-and-courageous-entrepreneurs/'
p1946
aS'http://www.buzzfeed.com/charliewarzel/why-twitters-newest-tweetstormtm-trend-must-be-stopped'
p1947
aS'www.vozag.com/marc-andreessen-pmarca-tweets/'
p1948
aS'www.twitter.com/pngmarca/status/519593389193326592'
p1949
aS'www.pork.io/'
p1950
aS'www.twitter.com/fmanjoo/status/534859068473892864'
p1951
aS'www.a16z.com/tag/what-were-reading/'
p1952
aS'www.twitter.com/pngmarca/status/547270796662431745'
p1953
aS'www.a16z.com/2014/10/15/supporting-stanford-hospital-er-for-the-silicon-valley-community/'
p1954
aS'www.twitter.com/minimaxir/status/464112775049277440'
p1955
aS'www.tweet.authorbee.com/channel/Tweetstorm'
p1956
aS'www.medium.com/according-to-pmarca'
p1957
aS'http://www.bloomberg.com/news/2014-10-07/andreessen-on-finance-we-can-reinvent-the-entire-thing-.html'
p1958
aS'www.a16z.com/2014/10/08/grants-to-nonprofits-working-to-grow-inclusion-in-tech/'
p1959
aS'www.tweetstorm.io/'
p1960
aS'www.twitter.com/pngmarca'
p1961
aS'www.techcrunch.com/2014/06/08/tweetstorms-exclamation-point/'
p1962
aS'www.twitter.com/pngmarca/status/515223834266324992'
p1963
aS'www.twitter.com/pngmarca/status/527144494659932160'
p1964
aS'www.blog.pmarca.com/2014/06/13/this-is-probably-a-good-time-to-say-that-i-dont-believe-robots-will-eat-all-the-jobs/'
p1965
aS'www.twitter.com/startupljackson/status/524424698298265600'
p1966
aS'www.twitter.com/pngmarca/status/523961618116276224'
p1967
aS'www.twitter.com/pmarca/status/506208594971222016'
p1968
aS'www.a16z.com/2014/08/24/another-lens-on-our-theory-about-tech-founderceos/'
p1969
aS'www.avc.com/2014/06/tweetstorming/'
p1970
aS'www.itunes.apple.com/us/app/stormy-simple-tweet-storms/id946755687'
p1971
aS'http://www.bothsidesofthetable.com/2014/06/29/want-to-know-what-marc-andreessens-magic-on-twitter-is-hint-its-not-tweetstorming/'
p1972
aS'www.qz.com/231649/marc-andreessen-first-six-months-on-twitter-were-unbelievably-epic/'
p1973
aS'www.pmarcatweetsasblogposts.tumblr.com/'
p1974
aS'http://www.yvoschaap.com/pmarca/'
p1975
aS'http://www.businessweek.com/printer/articles/208709-marc-andreessen-is-not-sorry-for-his-tweetstorms-rallying-techs-true-believers'
p1976
aS'www.imgur.com/a/tLRMc'
p1977
aS'www.a16z.com/2014/02/25/future-of-news-business/'
p1978
aS'www.twitter.com/cdixon/status/438530737210273792'
p1979
aS'www.twitter.com/jblukin/status/492500771477270528'
p1980
aS'www.tweetstorm.io/user/pmarca'
p1981
aS'www.a16z.files.wordpress.com/2015/03/vcdc2_credit-mishabruk.jpg'
p1982
aS'www.a16z.files.wordpress.com/2015/03/vcdc4_credit-mishabruk.jpg'
p1983
aS'www.a16z.files.wordpress.com/2015/03/vcdc1_credit-mishabruk.jpg'
p1984
aS'www.law.stanford.edu/executive'
p1985
aS'www.medium.com/@sukhindersinghcassidy/introducing-the-boardlist-1d7bf3adcb05#.zh4f0d98h'
p1986
aS'www.recode.net/2015/05/13/tech-women-choose-possibility/'
p1987
aS'www.choosepossibility.com/'
p1988
aS'www.twitter.com/hashtag/stag?src=hash'
p1989
aS'www.medium.com/tweet-stormed/stagnation-theory-3-5-879b6bc0f6ba'
p1990
aS'www.a16z.com/tag/macroeconomics-measuring-tech-productivity/'
p1991
aS'www.a16z.com/tag/stagnation-theory/'
p1992
aS'www.t.co/KAi72rRNgb'
p1993
aS'www.twitter.com/pmarca/status/549498236780552194'
p1994
aS'www.twitter.com/TimothyTTaylor'
p1995
aS'www.twitter.com/pmarca/status/549863658658877443'
p1996
aS'www.medium.com/tweet-stormed/stagnation-theory-wrap-up-5-5-1f3ec591a578'
p1997
aS'www.cambridgequantum.com/'
p1998
aS'www.jbs.cam.ac.uk/faculty-research/fellows-associates-a-z/ilyas-khan/'
p1999
aS'www.bhorowitz.com/2010/05/14/why-startups-should-train-their-people/'
p2000
aS'www.genius.com/Dr-dre-let-me-ride-lyrics'
p2001
aS'www.en.wikipedia.org/wiki/Tom_Heinsohn'
p2002
aS'www.a16z.com/2015/08/14/a16z-podcast-straight-outta-compton-the-interview/'
p2003
aS'http://www.slate.com/blogs/moneybox/2013/03/22/mobile_phones_are_more_common_than_plumbing.html'
p2004
aS'http://www.slideshare.net/kleinerperkins/internet-trends-2014-05-28-14-pdf'
p2005
aS'www.jeff.a16z.com/2014/06/17/betting-that-narrow-can-be-big/'
p2006
aS'www.youtu.be/LNNyb0q-s0A?list=PLOStnEM8wBOa75Y9qaQEvrZvKsHeoChvm'
p2007
aS'www.youtu.be/4bzcFBZbFeg?list=PLOStnEM8wBOa75Y9qaQEvrZvKsHeoChvm'
p2008
aS'www.cacm.acm.org/blogs/blog-cacm/176450-python-is-now-the-most-popular-introductory-teaching-language-at-top-us-universities/fulltext'
p2009
aS'http://www.bothsidesofthetable.com/2014/07/22/the-changing-structure-of-the-vc-industry/'
p2010
aS'www.premoney.co/resources/'
p2011
aS'www.ben-evans.com/benedictevans/2014/4/25/ipad-growth'
p2012
aS'www.blog.pmarca.com/2013/03/26/unshackle-the-middle-class/'
p2013
aS'www.cdixon.org/2014/04/13/software-eats-software-development/'
p2014
aS'http://www.amazon.com/Only-Paranoid-Survive-Andrew-Grove/dp/0385482582'
p2015
aS'www.techcrunch.com/2010/03/14/notes-on-leadership-jobs-grove-campbel/'
p2016
aS'www.money.cnn.com/2008/07/21/technology/reingold_coach.fortune/index.htm'
p2017
aS'http://www.amazon.com/High-Output-Management-Andrew-Grove/dp/0679762884'
p2018
aS'www.a16z.com/2015/05/18/the-smartphone-as-an-internet-platform-in-a-way-the-pc-was-not/'
p2019
aS'www.a16z.com/2014/02/07/love-affair-with-tablet-is-over/'
p2020
aS'www.a16z.com/2013/04/18/tilting-with-the-crowd/'
p2021
aS'www.a16z.com/tag/crowdfunding/'
p2022
aS'www.25iq.com/author/trengriffin/'
p2023
aS'http://www.amazon.com/Charlie-Munger-Complete-Investor-Publishing/dp/023117098X'
p2024
aS'www.a16z.com/tag/tren-griffin/'
p2025
aS'www.a16z.com/tag/economics/'
p2026
aS'www.issuu.com/columbiaup/docs/griffin'
p2027
aS'www.25iq.com/2015/09/12/a-dozen-things-ive-learned-from-charlie-munger-about-inversion-including-the-importance-of-being-consistently-not-stupid-2/'
p2028
aS'www.a16z.com/2015/04/27/a16z-podcast-the-five-stages-of-bitcoin-disdain-dismissal-curiosity-oh-fk-and-acceptance/'
p2029
aS'www.a16z.com/2013/12/18/bringing-bitcoin-to-everyone/'
p2030
aS'www.a16z.com/2014/10/22/why-you-should-risk-sharing-your-idea/'
p2031
aS'www.a16z.com/2014/05/20/a16z-podcast-bending-every-pixel-to-your-will-optimizely-and-the-next-wave-of-internet-tools/'
p2032
aS'www.a16z.files.wordpress.com/2014/02/bitcoin.jpg'
p2033
aS'http://www.cdixon.org/2014/03/15/full-stack-startups/'
p2034
aS'www.online.wsj.com/news/articles/SB10001424053111903480904576512250915629460'
p2035
aS'www.a16z.com/2015/01/30/a16z-podcast-mobile-is-eating-the-world-and-apple-is-gobbling-fastest/'
p2036
aS'www.a16z.com/2014/08/26/a16z-podcast-ben-and-marc-explain-practically-everything-part-2/'
p2037
aS'www.a16z.com/2014/11/11/some-of-my-thoughts-on-net-neutrality/'
p2038
aS'www.a16z.com/2015/11/27/non-profit-social-tools-homes/'
p2039
aS'www.a16z.com/tag/idea-maze/'
p2040
aS'www.a16z.com/2015/03/17/tachyon/'
p2041
aS'www.a16z.com/2014/06/18/a16z-podcast-datacenter-of-the-future/'
p2042
aS'www.a16z.com/2014/06/13/a16z-podcast-mapping-the-information-economy/'
p2043
aS'www.a16z.com/tag/tech-summit-2014/'
p2044
aS'www.a16z.com/2010/04/28/why-we-prefer-founding-ceos/'
p2045
aS'www.a16z.com/2015/06/15/a16z-podcast-taking-the-very-very-long-view-on-tech-investing/'
p2046
aS'www.ben-evans.com/benedictevans/2015/8/12/35-years-of-us-tech-funding'
p2047
aS'www.facebook.com/zuck/posts/10101319050523971?stream_ref=1'
p2048
aS'www.a16z.files.wordpress.com/2014/03/oculus1.jpg'
p2049
aS'http://www.cdixon.org/2014/03/25/oculus/'
p2050
aS'www.theinformation.com/The-Best-VR-Startups-In-2015-Will-Go-Pro'
p2051
aS'www.icahn.mssm.edu/research/programs/brain-surgery-virtual-reality-simulation-program'
p2052
aS'www.a16z.com/2014/04/25/a16z-podcast-the-future-of-television/'
p2053
aS'www.a16z.com/tag/cloud-client-computing/'
p2054
aS'www.a16z.com/2015/03/12/the-past-and-future-of-systems-management/'
p2055
aS'www.a16z.com/tag/cloud-infrastructure/'
p2056
aS'www.a16z.com/tag/dashboard-all-the-things/'
p2057
aS'www.a16z.com/2012/07/09/software-eats-software-development-2/'
p2058
aS'http://www.apptio.com/'
p2059
aS'http://www.actifio.com/'
p2060
aS'www.github.com/'
p2061
aS'http://www.ciphercloud.com'
p2062
aS'http://www.youtube.com/watch?v=b9n7GulqdsU&feature=youtu.be'
p2063
aS'http://www.bromium.com/'
p2064
aS'http://www.tidemark.net/'
p2065
aS'http://www.platfora.com/'
p2066
aS'www.box.com/'
p2067
aS'http://www.okta.com/'
p2068
aS'www.a16z.com/2011/08/18/my-life-as-a-junkie-or-how-i-learned-to-appreciate-good-data-2/'
p2069
aS'www.projects.csail.mit.edu/soylent/'
p2070
aS'www.a16z.files.wordpress.com/2013/12/brain.png'
p2071
aS'www.projectcobi.com/'
p2072
aS'www.people.csail.mit.edu/rcm/'
p2073
aS'http://www.theatlantic.com/business/archive/2013/10/where-humans-will-always-beat-the-robots/280762/'
p2074
aS'www.a16z.files.wordpress.com/2014/07/sam_2.png'
p2075
aS'www.virtualschool.edu/cox/pub/PSIR/'
p2076
aS'www.twitter.com/ID_AA_Carmack/status/380018564792455168'
p2077
aS'www.a16z.com/tag/systems-management/'
p2078
aS'www.en.wikipedia.org/wiki/Opsware'
p2079
aS'www.en.wikipedia.org/wiki/Heartbleed'
p2080
aS'www.en.wikipedia.org/wiki/BigFix'
p2081
aS'http://www.tanium.com'
p2082
aS'www.a16z.com/tag/cto/'
p2083
aS'www.en.wikipedia.org/wiki/Indicator_of_compromise'
p2084
aS'www.genius.com/Geto-boys-fuck-a-war-lyrics'
p2085
aS'www.en.wikipedia.org/wiki/Laurence_J._Peter'
p2086
aS'www.en.wikipedia.org/wiki/Raymond_Hull'
p2087
aS'www.genius.com/Big-daddy-kane-i-get-the-job-done-lyrics'
p2088
aS'http://www.amazon.com/gp/product/0679762884?ie=UTF8&tag=marandsblo-20&linkCode=as2&camp=1789&creative=9325&creativeASIN=0679762884'
p2089
aS'www.blog.pmarca.com/2007/08/the-pmarca-guid.html'
p2090
aS'www.genius.com/Kanye-west-cold-lyrics'
p2091
aS'www.a16z.com/tag/annotation/'
p2092
aS'www.a16z.com/tag/5th-anniversary/'
p2093
aS'www.ehpcares.org/site/'
p2094
aS'http://www.viaservices.org/'
p2095
aS'http://www.flyprogram.org/'
p2096
aS'www.shfb.org/'
p2097
aS'http://www.shelternetwork.org/index.php'
p2098
aS'www.canopy.org/'
p2099
aS'http://www.bhorowitz.com/can_do_vs_cant_do_cultures'
p2100
aS'www.scott.a16z.com/2014/01/17/success-at-work-failure-at-home/'
p2101
aS'www.jeff.a16z.com/2014/04/17/leaving-it-all-on-the-field/'
p2102
aS'www.a16z.com/2014/07/09/auto-autonomy-cars-are-racing-toward-disruption/'
p2103
aS'www.recode.net/2014/07/24/disrupting-payments-africa-style/'
p2104
aS'www.recode.net/2014/07/29/going-where-the-money-isnt-wi-fi-for-south-african-townships/'
p2105
aS'www.a16z.com/2014/03/20/a16z-podcast-the-state-of-the-bitcoin-ecosystem-and-a-theory-on-satoshi/'
p2106
aS'http://www.thecrimson.com/article/2014/9/11/cs50-breaks-enrollment-records/'
p2107
aS'http://www.nytimes.com/2014/05/30/education/americas-it-school-look-west-harvard.html'
p2108
aS'www.folding.stanford.edu'
p2109
aS'www.a16z.files.wordpress.com/2014/09/pande1.jpg'
p2110
aS'www.sten.tamkivi.com/2013/12/so-what-does-an-eir-actually-do/'
p2111
aS'www.a16z.com/tag/non-profits/'
p2112
aS'www.genius.com/Dmx-who-we-be-lyrics'
p2113
aS'www.a16z.files.wordpress.com/2014/02/graph.jpg'
p2114
aS'www.a16z.files.wordpress.com/2014/02/graph2.jpg'
p2115
aS'http://www.crunchbase.com/person/sten-kamkivi'
p2116
aS'http://www.crunchbase.com/financial-organization/andreessen-horowitz'
p2117
aS'www.en.wikipedia.org/wiki/List_of_countries_by_number_of_Internet_users'
p2118
aS'www.a16z.files.wordpress.com/2014/02/compass.jpg'
p2119
aS'www.a16z.com/2011/11/06/f-ounders-2011-a-chronicle-in-verse-2/'
p2120
aS'www.techcrunch.com/2014/01/18/why-silicon-valley-cant-find-europe/'
p2121
aS'www.a16z.com/2015/06/12/location-indoormapping-context-mobile/'
p2122
aS'www.a16z.com/tag/recommended-reading/'
p2123
aS'www.a16z.com/2015/10/06/a16z-podcast-wall-streets-most-hated-man/'
p2124
aS'www.a16z.com/tag/mobile-ification-of-the-enterprise/'
p2125
aS'www.a16z.files.wordpress.com/2013/12/mathed.jpg'
p2126
aS'www.genius.com/Ryan-leslie-swiss-francs-lyrics'
p2127
aS'www.a16z.com/2014/12/19/a16z-podcast-dumb-storage-gets-smart/'
p2128
aS'www.a16z.com/2014/08/12/a16z-podcast-the-consumerization-of-it/'
p2129
aS'www.a16z.com/2013/12/18/software-eats-storage/'
p2130
aS'www.a16z.com/2013/10/12/shareholders-best-interests/'
p2131
aS'www.a16z.com/tag/android/'
p2132
aS'www.a16z.files.wordpress.com/2014/01/alien.png'
p2133
aS'www.medium.com/tweet-stormed/10-ways-to-damage-your-high-tech-growth-startup-2234ca6e00c2'
p2134
aS'www.twitter.com/pmarca/status/486473290517471233'
p2135
aS'www.a16z.com/2015/03/03/two-types-of-relationships-between-prices-and-information-in-financial-markets/'
p2136
aS'www.a16z.com/2015/01/05/pmarca-tweetstorm-bitcoin-2015/'
p2137
aS'www.medium.com/tweet-stormed/timing-and-capital-in-today-s-tech-startups-57a2ac9c6a4'
p2138
aS'www.twitter.com/pmarca/status/477664143982329860'
p2139
aS'www.twitter.com/pmarca/status/610690350168932352'
p2140
aS'www.a16z.com/2014/11/12/how-can-large-companies-innovate/'
p2141
aS'www.cdixon.org/2014/08/10/buzzfeed/'
p2142
aS'www.a16z.com/2012/06/15/the-struggle/'
p2143
aS'www.braldtbraldsstudio.com/'
p2144
aS'www.a16z.com/2011/11/02/what-now-founder-re-org/'
p2145
aS'www.a16z.files.wordpress.com/2014/11/source-fromwiki_credit-braldtbralds.jpg'
p2146
aS"www.en.wikipedia.org/wiki/Marx's_theory_of_alienation"
p2147
aS'www.nationcreation.wikia.com/wiki/File:Karl_marx_peace_sign_2.jpg'
p2148
aS'www.teespring.com/'
p2149
aS'www.teespring.com/nursesarecuteee'
p2150
aS'www.a16z.com/2014/02/06/the-tipping-point-e-commerce-version/'
p2151
aS'www.a16z.com/2015/03/11/21/'
p2152
aS'http://www.dirksencenter.org/print_emd_billionhere.htm'
p2153
aS'http://www.whitehouse.gov/the_press_office/TransparencyandOpenGovernment'
p2154
aS'www.a16z.files.wordpress.com/2014/09/opengov-before2.png'
p2155
aS'www.politicalticker.blogs.cnn.com/2014/08/08/cnn-poll-trust-in-government-at-all-time-low-2/'
p2156
aS'www.losangeles.opengov.com'
p2157
aS'www.losangeles.opengov.com/transparency#274/breakdown=F88F1D3E24CF43BBB5BEFD14BA5415FD&accountType=expenses&graph=stacked&selection=E6B6597C8FFAD1B1AA8092C538AE63DD'
p2158
aS'http://www.whitehouse.gov/the-press-office/2011/06/13/executive-order-delivering-efficient-effective-and-accountable-governmen'
p2159
aS'http://www.google.com/url?q=http%3A%2F%2Fwww.washingtonpost.com%2Fopinions%2Fdana-milbank-ralph-nader-and-grover-norquist-tread-common-political-ground%2F2014%2F05%2F27%2F856bf7c8-e5e7-11e3-8f90-73e071f3d637_story.html&sa=D&sntz=1&usg=AFQjCNF1fShIIf5Zb_G97leoQPi6Mkpr9Q'
p2160
aS'http://www.whitehouse.gov/sites/default/files/omb/budget/fy2015/assets/budget.pdf'
p2161
aS'www.a16z.files.wordpress.com/2014/09/opengov-after1.png'
p2162
aS'www.hlpusd.opengov.com/transparency#53/breakdown=A051DFF6C63E49FF96FF78425C3ACE45&accountType=expenses&graph=stacked&selection=DA1495221177FED09B1E673847B854C7'
p2163
aS'www.lamayor.org/openbudget'
p2164
aS'www.www2.census.gov/govs/local/summary_report.pdf'
p2165
aS'www.sierracounty.opengov.com/transparency#117/breakdown=FD28C3A2F29C4B8E9E279EE8AD90898B&accountType=expenses&graph=stacked&selection=E02F580021784324224D2A5950D469F9'
p2166
aS'www.svswa.opengov.com/transparency#94/breakdown=5BE871C3AEFF4BD09F4C92CBEF4F2E55&accountType=expenses&graph=stacked&selection=6DB1A99265FC13CB98193138FCBDE751'
p2167
aS'www.paloalto.opengov.com'
p2168
aS'http://www.prnewswire.com/news-releases/norquist-nader-join-forces-in-push-for-state-spending-transparency-52706672.html'
p2169
aS'www.dealbook.nytimes.com/2014/05/15/andreessen-horowitz-bets-on-a-government-software-start-up'
p2170
aS'www.en.wikipedia.org/wiki/Scan-based_trading'
p2171
aS'http://www.quirky.com/products/44-Pivot-Power-Flexible-Power-Strip'
p2172
aS'http://www.quirky.com'
p2173
aS'www.cdixon.org/2014/12/21/two-eras-of-the-internet-pull-and-push/'
p2174
aS'http://www.forbes.com/sites/bruceupbin/2012/08/30/the-dangerous-seduction-of-the-lifetime-value-ltv-formula/%C2%A0'
p2175
aS'www.blog.kissmetrics.com/saasy-pricing-strategies/'
p2176
aS'www.techcrunch.com/2014/05/16/the-price-is-right-for-early-stage-saas-companies-it-needs-to-be/'
p2177
aS'http://www.forentrepreneurs.com/saas-metrics-2-definitions/'
p2178
aS'www.techcrunch.com/2014/03/26/box-unveils-first-standalone-product-and-new-api-pricing-at-inaugural-dev-conference/'
p2179
aS'www.fortune.com/2015/10/16/andreessen-horowitz-startup-entrepreneur/'
p2180
aS'www.a16z.com/tag/term-sheets/'
p2181
aS'www.linkedin.com/today/post/article/20140619201439-3414257-has-the-theory-of-disruption-hit-puberty'
p2182
aS'http://www.vox.com/2014/6/17/5817824/disruption-is-a-dumb-buzzword-its-also-an-important-concept'
p2183
aS'http://www.digitopoly.org/2014/06/16/the-easy-target-that-is-the-theory-of-disruptive-innovation/'
p2184
aS'www.en.wikipedia.org/wiki/Disruptive_innovation'
p2185
aS'http://www.businessweek.com/articles/2014-06-20/clayton-christensen-responds-to-new-yorker-takedown-of-disruptive-innovation#p2'
p2186
aS'http://www.asymco.com/2014/06/25/the-disruption-faq/'
p2187
aS'www.en.wikipedia.org/wiki/Blind_men_and_an_elephant'
p2188
aS'www.papers.ssrn.com/sol3/papers.cfm?abstract_id=2367836'
p2189
aS'www.praxtime.com/2014/06/23/from-disruption-to-tech-regs/'
p2190
aS'www.twitter.com/stevesi/status/478984378182164480'
p2191
aS'http://www.ribbonfarm.com/2007/07/23/disruptive-versus-radical-innovations/'
p2192
aS'www.edgeperspectives.typepad.com/edge_perspectives/2014/06/the-disruption-debate.html'
p2193
aS'http://www.aei-ideas.org/2014/06/why-business-guru-clayton-christensen-has-landed-on-the-lefts-hit-list/'
p2194
aS'www.daringfireball.net/2012/07/iphone_disruption_five_years_in'
p2195
aS'www.a16z.com/tag/link-roundups/'
p2196
aS'www.stratechery.com/2013/obsoletive/'
p2197
aS'http://www.newyorker.com/reporting/2014/06/23/140623fa_fact_lepore?currentPage=all'
p2198
aS'http://www.urbanophile.com/2014/06/20/disrupting-the-disruptors/'
p2199
aS'http://www.forbes.com/sites/stevedenning/2014/06/19/the-new-yorker-battle-of-the-strategy-titans/'
p2200
aS'www.tweetstorm.io/user/pmarca/479073790857461760'
p2201
aS'http://www.newyorker.com/reporting/2012/05/14/120514fa_fact_macfarquhar'
p2202
aS'www.blogs.parc.com/blog/2012/07/defining-and-spotting-disruptive-innovation/'
p2203
aS'http://www.deloitte.com/view/en_US/us/Insights/Browse-by-Content-Type/books/innovators-manifesto/index.htm'
p2204
aS'www.twitter.com/BlindfoldedLady/status/479128033752662016'
p2205
aS'http://www.businessweek.com/articles/2014-06-18/the-innovators-new-clothes-is-disruption-a-failed-model'
p2206
aS'http://www.highbeam.com/doc/1G1-18474700.html'
p2207
aS'www.articles.orlandosentinel.com/1994-09-27/business/9409270294_1_gotv-movie-studios-seminole-county'
p2208
aS'http://www.nytimes.com/1994/12/12/business/time-warner-s-time-machine-for-future-video.html?src=pm'
p2209
aS'www.techcrunch.com/2014/02/01/harvey-keitel-ceo-or-how-to-pull-off-the-impossible/'
p2210
aS'www.ifttt.com/'
p2211
aS'http://www.withings.com/en/'
p2212
aS'www.join.app.net/'
p2213
aS'http://www.go-gulf.com/blog/online-time/'
p2214
aS'www.online.wsj.com/article/SB10001424053111903480904576512250915629460.html'
p2215
aS'www.blog.ifttt.com/post/2316021241/ifttt-the-beginning'
p2216
aS'www.john.a16z.com/?attachment_id=5576'
p2217
aS'www.john.a16z.com/?attachment_id=5575'
p2218
aS'http://www.pcmag.com/article2/0,2817,2375359,00.asp'
p2219
aS'www.instagram.com/developer/authentication/'
p2220
aS'www.mashthis.io/ifttt-with-linden-tibbets'
p2221
aS'http://www.gpsshoe.com/'
p2222
aS'www.a16z.com/2014/10/23/intellectual-property-in-the-open/'
p2223
aS'www.a16z.com/2014/10/17/the-future-of-software-development-eves-chris-granger-plots-a-course/'
p2224
aS'www.a16z.com/2014/10/07/advice-for-startups-straddling-the-tech-and-policy-worlds/'
p2225
aS'www.medium.com/working-parents-in-america/success-at-work-failure-at-home-f1d6f5d8d92f'
p2226
aS'www.medium.com/working-parents-in-america'
p2227
aS'www.a16z.com/2011/10/05/looking-bigger-2/'
p2228
aS'www.a16z.com/2013/04/11/ken-coleman/'
p2229
aS'www.a16z.com/2010/04/06/ron-conway-explained/'
p2230
aS'www.a16z.com/2011/09/30/building-the-global-startup-part-4-if-its-unfunded-its-not-going-to-get-done-2/'
p2231
aS'www.gartner.com/doc/500004/ironport-buy-make-cisco-major'
p2232
aS'www.blog.lyft.com/posts/2015/3/11/accelerating-the-lyft-movement'
p2233
aS'www.blog.learningbyshipping.com/2014/01/13/a-product-management-view-of-ces-2014/'
p2234
aS'www.a16z.com/2012/06/29/the-case-for-e-commerce-acceleration-aka-bye-bye-bby/'
p2235
aS'www.jeff.a16z.com/2014/01/15/the-tipping-point-e-commerce-version/'
p2236
aS'www.instacart.com/'
p2237
aS'www.a16zjeff.files.wordpress.com/2014/06/cart1.jpg'
p2238
aS'www.genius.com/Ice-cube-check-yo-self-lyrics'
p2239
aS'www.genius.com/898447'
p2240
aS'www.a16z.com/2015/05/07/a16z-podcast-barbarians-at-the-gate-how-to-think-about-enterprise-security-today/'
p2241
aS'www.knowyourmeme.com/memes/do-you-even-lift'
p2242
aS'http://www.google.com/url?q=http%3A%2F%2Fwww.cnn.com%2F2010%2FHEALTH%2Fdiet.fitness%2F12%2F31%2Flose.weight.new.resolution%2F&sa=D&sntz=1&usg=AFQjCNHuOmm8Sfd4DdPiRnHEA3JropEuvg'
p2243
aS'http://www.slate.com/articles/health_and_science/medical_examiner/2013/12/exercise_to_prevent_cure_or_treat_disease_cancer_heart_disease_inflammation.html'
p2244
aS'http://www.idf.org/diabetesatlas'
p2245
aS'www.care.diabetesjournals.org/content/early/2013/03/05/dc12-2625'
p2246
aS'http://www.unitedhealthgroup.com/~/media/uhg/pdf/2010/unh-working-paper-5.ashx'
p2247
aS'www.a16z.files.wordpress.com/2014/04/graph-red_v4.png'
p2248
aS'www.diabetes.niddk.nih.gov/dm/pubs/preventionprogram/'
p2249
aS'www.a16z.files.wordpress.com/2014/04/graph-blue_v4.png'
p2250
aS'www.omadahealth.com/'
p2251
aS'http://www.cnn.com/2010/HEALTH/diet.fitness/12/31/lose.weight.new.resolution/'
p2252
aS'www.professional.diabetes.org/admin/UserFiles/0%20-%20Sean/FastFacts%20March%202013.pdf'
p2253
aS'www.data.worldbank.org/indicator/SH.XPD.TOTL.ZS'
p2254
aS'www.tde.sagepub.com/'
p2255
aS'www.preventnow.com/faq/'
p2256
aS'http://www.cms.gov/Research-Statistics-Data-and-Systems/Statistics-Trends-and-Reports/NationalHealthExpendData/NationalHealthAccountsHistorical.html'
p2257
aS'http://www.usatoday.com/story/money/business/2014/03/30/health-care-spending/7007987/'
p2258
aS'http://www.nejm.org/doi/full/10.1056/NEJMoa012512'
p2259
aS'http://www.cdc.gov/diabetes/pubs/pdf/ndfs_2011.pdf'
p2260
aS'www.a16z.files.wordpress.com/2014/04/graph-green_v4-1.png'
p2261
aS'www.care.diabetesjournals.org/content/early/2013/03/05/dc12-2625.abstract'
p2262
aS'www.a16z.com/2014/08/29/the-state-of-venture-capital/'
p2263
aS'www.genius.com/Lupe-fiasco-all-black-everything-lyrics'
p2264
aS'www.bhorowitz.com/re_imagining_enterprise_applications_in_the_cloud/'
p2265
aS'www.a16z.files.wordpress.com/2013/12/enterprisehacker.jpg'
p2266
aS'www.a16z.com/2013/04/15/through-the-looking-glass-hiring-sales-people/'
p2267
aS'http://www.tubefilter.com/2015/01/21/jason-kilar-vessel-launch-beta/'
p2268
aS'www.a16z.com/2013/08/07/picture-this/'
p2269
aS'www.blogs.wsj.com/venturecapital/2013/10/10/weary-of-fruit-fly-consumer-startups-andreessen-horowitz-raises-series-a-bar/?KEYWORDS=scott+weiss'
p2270
aS'www.a16z.com/2012/05/11/what-now-turning-vision-into-execution/'
p2271
aS'www.twitter.com/pmarca/status/510486200776290305'
p2272
aS'www.a16z.com/tag/not-a-trend-but-it-should-be/'
p2273
aS'www.a16z.com/2012/08/08/app-net-is-not-vaporware/'
p2274
aS'http://www.econtalk.org/archives/2014/05/marc_andreessen.html'
p2275
aS'http://www.stumbleupon.com/su/1piWcf'
p2276
aS'www.youtube.com/watch?v=JYYsXzt1VDc&feature=youtu.be'
p2277
aS'www.news.genius.com/Marc-andreessen-why-software-is-eating-the-world-annotated'
p2278
aS'www.a16z.files.wordpress.com/2014/07/screen-shot-2014-06-12-at-11-53-33-am.png'
p2279
aS'www.25iq.com/2014/05/17/a-dozen-things-ive-learned-about-marketing-distribution-and-sales/'
p2280
aS'www.pando.com/2013/10/04/pandomonthly-san-francisco-with-a16zs-marc-andreessen-the-full-interview/'
p2281
aS'www.25iq.com/2014/06/07/a-dozen-things-ive-learned-from-michael-moritz-about-venture-capital/'
p2282
aS'http://www.quora.com/Does-getting-an-MBA-make-someone-a-better-entrepreneur'
p2283
aS'www.genius.com/The-game-dont-need-your-love-lyrics'
p2284
aS'www.a16z.com/tag/fashion/'
p2285
aS'http://www.nytimes.com/2014/12/03/us/politics/ashton-carter-may-replace-chuck-hagel-at-defense-department-official-says.html?_r=0'
p2286
aS'http://www.politico.com/story/2014/12/ashton-carter-secretary-of-defense-113283.html'
p2287
aS'www.bhorowitz.com/2011/06/29/meet-our-new-special-advisor-larry-summers/'
p2288
aS'http://www.un.org/en/sustainablefuture/oceans.shtml'
p2289
aS'www.en.wikipedia.org/wiki/The_Population_Bomb'
p2290
aS'http://www.theepochtimes.com/n2/china-news/fertilizer-overuse-damages-agriculture-and-environment-in-china-62671.html'
p2291
aS'www.online.wsj.com/article/SB10001424052702303410404577464791927446070.html'
p2292
aS'http://www.un.org/en/sustainablefuture/disasters.shtml'
p2293
aS'http://www.solumtech.com/'
p2294
aS'http://www.un.org/en/sustainablefuture/cities.shtml'
p2295
aS'http://www.un.org/en/sustainablefuture/water.shtml'
p2296
aS'http://www.chinadaily.com.cn/cndy/2011-08/17/content_13128299.htm'
p2297
aS'http://www.un.org/en/sustainablefuture/food.shtml'
p2298
aS'www.a16zjohn.files.wordpress.com/2013/01/escalations-pd.png'
p2299
aS'http://www.datacenterknowledge.com/archives/2012/12/17/the-year-in-downtime-top-10-outages-of-2012/'
p2300
aS'http://www.nerdwallet.com/blog/markets/2012/analysis-black-friday-cyber-monday-break-records-online-sales-explode-traditional-retailers-compete-ecommerce/'
p2301
aS'http://www.eweek.com/c/a/IT-Infrastructure/IT-Outages-Cause-Businesses-265-Billion-in-Lost-Revenue-Each-Year-Survey-280492/'
p2302
aS'www.a16zjohn.files.wordpress.com/2013/01/on-call-sched-pd.png'
p2303
aS'www.online.wsj.com/article/SB10001424127887323300404578203964013526472.html'
p2304
aS'http://www.datacenterknowledge.com/archives/2012/09/10/go-daddy-outage/'
p2305
aS'www.abcnews.go.com/Technology/major-sites-experience-outages-internet/story?id=17575288'
p2306
aS'www.a16zjohn.files.wordpress.com/2013/01/incidents-pd.png'
p2307
aVwww.a16z.com/#_ftnref1
p2308
aS'http://www.quora.com/Who-originally-said-Surround-yourself-with-people-smarter-than-you-are'
p2309
aS'http://www.reuters.com/article/2012/03/26/net-us-venture-andreessen-idUSBRE82P0T120120326'
p2310
aVwww.a16z.com/#_ftn1
p2311
aS'www.john.a16z.com/2012/05/30/knowing-where-the-exits-are/'
p2312
aS'www.a16zjohn.files.wordpress.com/2012/06/risks.png'
p2313
aS'www.scott.a16z.com/2011/12/21/hiring-rockstars/'
p2314
aS'www.scott.a16z.com/2011/12/06/treating-the-dysfunctional-ceo/'
p2315
aS'www.a16z.files.wordpress.com/2014/06/robot3.jpg'
p2316
aS'www.t.co/8Gd2AQugYn'
p2317
aS'www.t.co/7lZ8vKCXrw'
p2318
aS'www.a16zscott.files.wordpress.com/2013/05/african-combi.jpg'
p2319
aS'www.a16z.files.wordpress.com/2014/03/robots4.jpg'
p2320
aS'www.a16z.files.wordpress.com/2014/03/banquet_yoky_matsuoka.jpg'
p2321
aS'http://www.hrw.org/sites/default/files/reports/syria_cw0913_web_1.pdf'
p2322
aS'www.a16z.com/tag/ios/'
p2323
aS'www.t.co/0fw9alDKh3'
p2324
aS'www.twitter.com/pmarca/status/481739410895941632'
p2325
aS'www.t.co/ecgBveoiMj'
p2326
aS'www.a16z.com/2015/09/10/a16z-podcast-apple-has-lock-on-luxury-smartphones-but-not-business-of-tv/'
p2327
aS'www.a16z.com/2014/08/10/buzzfeed/'
p2328
aVwww.a16z.files.wordpress.com/2014/03/stack.jpg\u201d><img
p2329
aS'www.a16z.files.wordpress.com/2014/03/stack.jpg&#8221'
p2330
aS'www.money.cnn.com/magazines/fortune/'
p2331
aS'www.a16z.com/2013/10/09/why-malls-are-getting-mauled/'
p2332
aS'www.a16z.com/2014/09/04/building-brands-and-running-retail-ron-johnson-and-tristan-walker-break-it-down/'
p2333
aS'www.a16z.com/2013/05/09/godzilla-vs-mothra-the-sequel/'
p2334
aS'www.twitter.com/pmarca/status/522477621117190144'
p2335
aS'http://www.zdnet.com/the-real-story-in-the-nsa-scandal-is-the-collapse-of-journalism-7000016570/'
p2336
aS'www.a16z.files.wordpress.com/2014/02/newsstand.jpg'
p2337
aS'http://www.zdnet.com/how-did-mainstream-media-get-the-nsa-prism-story-so-hopelessly-wrong-7000016822/'
p2338
aS'www.crowdtilt.com/'
p2339
aS'http://www.cjr.org/the_audit/nyt_hasnt_been_hit_that_hard.php'
p2340
aS'www.coinbase.com/'
p2341
aS'http://www.nytimes.com/2009/08/03/business/media/03carr.html?hp&_r=0'
p2342
aS'www.a16z.com/2014/12/28/pmarca-tweetstorm-stagnation-theory-15/'
p2343
aS'www.a16z.com/2014/12/26/pmarca-tweetstorm-revisiting-bernankes-global-savings-glut-hypothesis/'
p2344
aS'www.a16z.com/2014/12/22/pmarca-tweetstorm-learning-from-the-1890s-struggle-with-economic-change/'
p2345
aS'www.a16z.com/2014/12/23/pmarca-tweetstorm-understanding-our-times-through-the-1930s/'
p2346
aS'www.a16z.com/2014/12/28/pmarca-tweetstorm-stagnation-theory-25/'
p2347
aS'www.a16z.com/2014/12/19/pmarca-tweetstorm-economic-stagnation-theory-underestimates-the-potential-of-technologies/'
p2348
aS'www.squintfoto.com/'
p2349
aS'http://www.flickr.com/photos/tonyjcase/6803576634/'
p2350
aS'http://www.theverge.com/2014/1/15/5241970/oppo-n1-with-cyanogenmod-review'
p2351
aS'http://www.theguardian.com/technology/2014/jan/30/tablet-market-grows-slowly-apple-regains-share'
p2352
aS'http://www.youtube.com/watch?v=OBhYxj2SvRI'
p2353
aS'http://www.slashgear.com/tablets-sales-to-outnumber-pcs-by-the-end-of-the-year-24291626/'
p2354
aS'www.a16z.files.wordpress.com/2014/02/hearts.jpg'
p2355
aS'http://www.theguardian.com/technology/2011/sep/22/tablet-forecast-gartner-ipad'
p2356
aS'www.recode.net/'
p2357
aS'www.crowdtilt.com/campaigns/save-the-toy-store/description'
p2358
aS'www.crowdtilt.com/campaigns/funding-ayodele-sonupe-18ee2606'
p2359
aS'http://www.crowdtilt.com'
p2360
aS'www.crowdtilt.com/campaigns/lower-school-science'
p2361
aS'www.cdixon.org/2013/09/29/some-thoughts-on-startup-crowdfunding/'
p2362
aS'www.theageofcryptocurrency.com/'
p2363
aS'www.a16z.files.wordpress.com/2013/12/bitcoinneon.jpg'
p2364
aS'www.blogs.wsj.com/accelerators/2014/10/20/scott-weiss-round-up-the-experts/'
p2365
aS'www.medium.com/tweet-stormed/navigating-the-complexity-of-net-neutrality-5d17edfaa73a'
p2366
aS'www.a16z.com/tag/net-neutrality/'
p2367
aS'www.twitter.com/pmarca/status/532419227827712000'
p2368
aS'http://www.cs.berkeley.edu/~haoyuan/'
p2369
aS'www.tachyon-project.org/'
p2370
aS'www.a16z.files.wordpress.com/2015/03/tachyon-vs-hdfs.png'
p2371
aS'www.amplab.cs.berkeley.edu/software/'
p2372
aS'www.blog.box.com/2014/06/mapping-the-information-economy-a-tale-of-five-industries/'
p2373
aS'www.a16z.com/2014/12/05/marc-and-marc/'
p2374
aS'http://www.twitter.com/enderdoon'
p2375
aS'http://www.linkedin.com/in/yujinchung'
p2376
aS'www.blogs.reuters.com/felix-salmon/2009/11/05/ceos-founders-beat-out-managers/'
p2377
aS'http://www.tuaw.com/2009/11/05/forbes-names-jobs-ceo-of-the-decade/'
p2378
aS'www.bhorowitz.com/2010/03/14/notes-on-leadership-be-like-steve-jobs-and-bill-campbell-and-andy-grove/'
p2379
aS'www.steveblank.com/'
p2380
aS'www.opim.wharton.upenn.edu/enabletech/2010/04/28/ugc-founding-vs-professional-ceo-performance-analysis/'
p2381
aS'www.genius.com/Rakim-follow-the-leader-lyrics'
p2382
aS'www.blog.pmarca.com/2009/07/introducing-our-new-venture-capital-firm-andreessen-horowitz.html'
p2383
aS'www.genius.com/Yg-my-nigga-lyrics'
p2384
aS'www.a16z.com/2014/05/05/a-new-enterprise-software-franchise-optimizely/'
p2385
aS'www.a16z.com/2014/07/11/from-rap-genius-to-genius-2/'
p2386
aS'www.online.wsj.com/news/articles/SB10001424052702304830704577493032619987956'
p2387
aS'http://www.nytimes.com/2014/07/04/business/daimler-demonstrates-a-self-driving-truck.html?_r=0'
p2388
aS'www.recode.net/2014/05/27/googles-new-self-driving-car-ditches-the-steering-wheel/'
p2389
aS'www.a16z.files.wordpress.com/2014/07/early-vehicle-lores.jpg'
p2390
aS'www.thenextweb.com/eu/2011/11/01/founders-rolls-royce-of-technology-tech-events/'
p2391
aS'www.stevecheney.com/first-brain-computing-and-the-mouse-cursor-for-the-physical-world/'
p2392
aS'www.genius.com/Nwa-straight-outta-compton-lyrics'
p2393
aS'www.a16z.com/2013/07/03/shared-command-2/'
p2394
aS'www.a16z.com/2013/10/07/the-best-board-member/'
p2395
aS'www.ben-evans.com/benedictevans/2014/9/10/iphone6'
p2396
aS'www.a16z.com/2015/06/09/a16z-podcast-apple-gets-its-music-streaming-and-gives-news-another-try/'
p2397
aS'www.a16z.com/2014/12/17/a16z-podcast-enough-with-the-old-stuff-time-for-new-questions-in-mobile/'
p2398
aS'www.a16z.com/2015/05/29/a16z-podcast-for-google-android-is-a-tactic-and-cloud-is-a-strategy/'
p2399
aS'www.medium.com/tweet-stormed/the-relationships-between-prices-and-information-in-financial-markets-cafebf09b3b8'
p2400
aS'www.twitter.com/pmarca/status/572933502594781185'
p2401
aS'www.twitter.com/pmarca/status/552186222559244288'
p2402
aS'www.medium.com/tweet-stormed/the-state-of-bitcoin-2015-and-what-s-next-66744ea8986'
p2403
aS'www.youtu.be/akOazwgDiSI'
p2404
aS'www.paulgraham.com/swan.html'
p2405
aS'www.genius.com/Lupe-fiasco-beautiful-lasers-2-ways-lyrics'
p2406
aS'www.online.wsj.com/news/articles/SB10001424052702304439804579207580048284154?mod=WSJ_hp_LEFTWhatsNewsCollection'
p2407
aS'http://www.latimes.com/business/money/la-fi-mo-jcpenney-sec-inquiry-20131205,0,4998107.story#axzz2mjsyeTGx'
p2408
aS'http://www.businessinsider.com/best-buy-new-price-matching-policy-2013-2'
p2409
aS'http://www.huffingtonpost.com/2013/11/06/blockbuster-closing_n_4226735.html'
p2410
aS'www.a16z.files.wordpress.com/2014/02/cart.jpg'
p2411
aS'http://www.marketwatch.com/story/barnes-noble-drops-on-second-quarter-sales-miss-2013-11-26'
p2412
aS'www.recodetech.files.wordpress.com/2014/01/image005.png'
p2413
aS'www.recodetech.files.wordpress.com/2014/01/image006.png'
p2414
aS'www.fashionista.com/2013/12/teen-retailers-failing-abercrombie-american-eagle-aeropostale/'
p2415
aS'http://www.forbes.com/sites/briansolomon/2013/12/04/with-investors-bailing-is-eddie-lamperts-sears-doomed/'
p2416
aS'www.recode.net/2015/02/09/hp-acquires-startup-voltage-security/'
p2417
aS'http://www.voltage.com/company/leadership/'
p2418
aS'http://www.wsj.com/articles/big-names-put-cash-in-bitcoin-startup-21-inc-1426029318'
p2419
aS'www.21.co'
p2420
aS'www.twitter.com/edfelten'
p2421
aS'www.freedom-to-tinker.com/'
p2422
aS'http://www.ideo.com'
p2423
aS'www.authenticationmetrics.com/'
p2424
aS'http://www.zivity.com/about'
p2425
aS'http://www.ironportstore.com/web-security.asp'
p2426
aS'www.genius.com/Drake-started-from-the-bottom-lyrics'
p2427
aS'www.en.wikipedia.org/wiki/Silicon_Graphics'
p2428
aS'www.genius.com/The-game-cali-sunshine-lyric'
p2429
aS'http://www.amazon.com/Godfather-Silicon-Valley-Conway-Dot-coms/dp/081299163X'
p2430
aS'http://www.a16z.com'
p2431
aS'http://www.quora.com/Startups-What-are-the-most-important-criteria-when-selecting-JVs'
p2432
aS'www.john.a16z.com/2011/07/19/building-the-global-startup-part-2-get-yourself-a-strategy/'
p2433
aS'www.a16zjeff.files.wordpress.com/2012/06/electronics-and-appliances-sales-by-channel.png'
p2434
aS'www.a16zjeff.files.wordpress.com/2012/06/online-share-of-retail-sales-by-category1.png'
p2435
aS'www.jeff.a16z.com/2012/05/08/fire-in-the-belly/'
p2436
aS'www.youtube.com/watch?v=LNNyb0q-s0A'
p2437
aS'www.youtube.com/watch?v=4bzcFBZbFeg'
p2438
aS'www.genius.com/Run-dmc-peter-piper-lyrics'
p2439
aS'http://www.500px.com'
p2440
aS'www.500px.com/photo/673796'
p2441
aS'www.500px.com/photo/1727142'
p2442
aS'www.500px.com/photo/4930592'
p2443
aS'www.500px.com/photo/3682281'
p2444
aS'www.500px.com/photo/8361708'
p2445
aS'www.jeff.a16z.com/2013/06/19/the-series-a-round-is-the-new-series-b-round/'
p2446
aS'www.alpha.app.net/rrbrambley/post/6888'
p2447
aS'www.daltoncaldwell.com/'
p2448
aS'www.mobods.com/3l5'
p2449
aS'www.github.com/appdotnet/api-spec'
p2450
aS'http://www.kickstarter.com/help/stats'
p2451
aS'www.alpha.app.net/'
p2452
aS'www.a16z.com/2014/08/22/a16z-podcast-the-wearables-session/'
p2453
aS'www.a16z.com/2014/07/24/the-micro-and-macro-of-mobile/'
p2454
aS'www.cdixon.org/2013/09/14/the-internet-is-for-snacking/'
p2455
aS'www.jeff.a16z.com/?attachment_id=183'
p2456
aS'www.jeff.a16z.com/?attachment_id=181'
p2457
aS'www.jeff.a16z.com/?attachment_id=184'
p2458
aS'http://www.bonobos.com/welcome/h7b'
p2459
aS'www.a16z.files.wordpress.com/2013/10/malls.jpg'
p2460
aS'http://www.bloomberg.com/video/best-buy-e-commerce-the-changing-game-of-retail-pa5dDn0ERpObOFgiWhqWCg.html'
p2461
aS'www.jeff.a16z.com/?attachment_id=180'
p2462
aS'www.jeff.a16z.com/2012/12/13/when-black-friday-comes/'
p2463
aS'http://www.costar.com/News/Article/The-De-Malling-of-America-Whats-Next-for-Hundreds-of-Outmoded-Malls-/141980'
p2464
aS'www.blogs.wsj.com/developments/2012/06/21/retail-reit-executive-most-failed-malls-will-languish/'
p2465
aS'http://www.deadmalls.com'
p2466
aS'www.a16zjeff.files.wordpress.com/2013/05/wordstream.png'
p2467
aS'http://www.google.com/shopping/express/about/'
p2468
aS'http://www.wordstream.com/articles/google-earnings'
p2469
aS'www.google.com/#q=canon+eos+7d&revid=1307232407&sa=X&ei=GR13Ua3gHOSu2gWau4GoAw&ved=0CN8BENUCKAQ&fp=1&biw=1248&bih=1142&bav=on.2,or.r_cp.r_qf.&cad=b'
p2470
aS'www.dailycoffeenews.com/2013/04/16/googles-first-bufferbox-inside-san-franciscos-coffee-bar/'
p2471
aS'www.medium.com/tweet-stormed/stagnation-theory-1-5-f0ebd2bbf022'
p2472
aS'www.twitter.com/pmarca/status/549425508815880192'
p2473
aS'www.twitter.com/pmarca/status/548396318805082112'
p2474
aS'www.medium.com/tweet-stormed/revisiting-bernanke-s-2005-global-savings-glut-hypothesis-8d92c00ffbd5'
p2475
aS'www.t.co/ZHXTSIdvkj'
p2476
aS'www.medium.com/tweet-stormed/recent-economic-changes-by-david-wells-what-1870-1890-teaches-us-today-560cc780584c'
p2477
aS'www.twitter.com/pmarca/status/547266564089606144'
p2478
aS'www.t.co/814vpfqcBH'
p2479
aS'www.twitter.com/hashtag/glf?src=hash'
p2480
aS'www.twitter.com/pmarca/status/547323753504337920'
p2481
aS'www.medium.com/tweet-stormed/the-1930-s-as-a-technologically-progressive-decade-334503c3aaf4'
p2482
aS'www.t.co/6o7eJP5OuF'
p2483
aS'www.twitter.com/pmarca/status/549445719816278016'
p2484
aS'www.t.co/moDmYn4sJs'
p2485
aS'www.twitter.com/DavidBeckworth'
p2486
aS'www.medium.com/tweet-stormed/stagnation-theory-2-5-96cc41c61a2e'
p2487
aS'www.twitter.com/pmarca/status/545909076341690368'
p2488
aS'www.medium.com/tweet-stormed/a-secular-stagnation-hypothesis-from-the-bank-of-italy-9f114cbe1578'
p2489
aS'www.t.co/rfnHkupv2o'
p2490
aS'www.optimizely.com/'
p2491
aS'www.blog.optimizely.com/2014/05/05/optimizely-series-b-funding/'
p2492
aS'www.news.genius.com/President-barack-obama-pot-less-harmful-than-alcohol-annotated'
p2493
aS'www.history.genius.com/United-states-congress-the-bill-of-rights-annotated'
p2494
aS'www.rap.genius.com/Jay-electronica-exhibit-c-lyrics#note-28214'
p2495
aS'www.lit.genius.com/Ts-eliot-the-waste-land-annotated'
p2496
aS'www.lit.genius.com/F-scott-fitzgerald-the-great-gatsby-chapter-i-annotated'
p2497
aS'www.news.genius.com/Marc-andreessen-why-andreessen-horowitz-is-investing-in-rap-genius-annotated'
p2498
aS'www.a16z.com/2012/05/01/what-now-board-meeting-or-bullsht/'
p2499
aS'www.a16z.com/2010/10/08/in-defense-of-standards-ethics-and-honest-financial-reporting-at-hewlett-packard/'
p2500
aS'www.a16z.com/2011/09/02/ridiculously-transparent/'
p2501
aS'www.a16z.com/2013/12/18/when-leaders-serve-a-conversation-with-ebay-ceo-john-donahoe/'
p2502
aS'www.a16z.com/tag/apps/'
p2503
aS'www.genius.com/Eminem-not-afraid-lyrics'
p2504
aS'www.a16z.files.wordpress.com/2013/12/johndonahoe.jpg'
p2505
a.