(lp1
S'www.content.flyfrontier.com/optional-service-fees'
p2
aS'www.content.flyfrontier.com/plan-book/fare-options?_ga=1.26605371.761020580.1426633738'
p3
aVwww.flyfrontier.com/Member/Register
p4
aS'www.booking.flyfrontier.com/Flight/Internal#flightStatus-tab'
p5
aS'www.content.flyfrontier.com/travel-information/at-the-airport?_ga=1.35133095.761020580.1426633738'
p6
aVwww.flyfrontier.com/#
p7
aS'www.content.flyfrontier.com/travel-information/seating-options?_ga=1.94461466.761020580.1426633738'
p8
aS'www.booking.flyfrontier.com/Flight/Internal#findFlights-tab'
p9
aS'www.content.flyfrontier.com/travel-information/inflight-catering?_ga=1.94461466.761020580.1426633738'
p10
aS'www.content.flyfrontier.com/site-map'
p11
aS'www.content.flyfrontier.com/travel-information/baggage?_ga=1.60250539.761020580.1426633738'
p12
aS'www.content.flyfrontier.com/travel-information/family-pets?_ga=1.94461466.761020580.1426633738'
p13
aS'www.content.flyfrontier.com/privacy'
p14
aS'www.content.flyfrontier.com/ways-to-save/discount-den?_ga=1.60250539.761020580.1426633738'
p15
aS'www.content.flyfrontier.com/terms-of-use'
p16
aS'www.hotels.flyfrontier.com'
p17
aS'www.content.flyfrontier.com/travel-information/travel-policies?_ga=1.35666342.761020580.1426633738'
p18
aS'www.content.flyfrontier.com/customer-service/contact-us'
p19
aS'www.flyfrontier.com/legal/contract-of-carriage/'
p20
aS'www.content.flyfrontier.com/ways-to-save/earlyreturns?_ga=1.60250539.761020580.1426633738'
p21
aS'www.flyfrontier.com'
p22
aS'www.content.flyfrontier.com/travel-information/security-customs?_ga=1.35133095.761020580.1426633738'
p23
aS'www.content.flyfrontier.com/travel-information/international-travel?_ga=1.35133095.761020580.1426633738'
p24
aS'www.content.flyfrontier.com/manage-travel/online-check-in?_ga=1.26605371.761020580.1426633738'
p25
aS'http://www.travelguard.com/frontierairlines'
p26
aS'www.content.flyfrontier.com/ways-to-save/mastercard?_ga=1.60250539.761020580.1426633738'
p27
aS'www.book1.carrental.com/dcweb/app?service=page/FTNStep1&pid=FrontierAirWebNew&locale=en&inited=false'
p28
aS'www.content.flyfrontier.com/plan-book/route-map?_ga=1.200810606.1762898474.1426629291'
p29
aVwww.flyfrontier.com/#forgot_password
p30
aS'www.content.flyfrontier.com/ways-to-save/online-deals'
p31
aS'www.booking.flyfrontier.com/Flight/Internal#checkIn-tab'
p32
aVwww.flyfrontier.com/javascript:void(0);
p33
aS'www.content.flyfrontier.com/travel-information/special-needs?_ga=1.94461466.761020580.1426633738'
p34
a.