(lp1
Vwww.atavist.com/login
p2
aVwww.atavist.com/
p3
aVwww.atavist.com/for/photographers
p4
aVwww.atavist.com/for/journalists-publishers
p5
aVwww.atavist.com/for/nonprofit-cultural
p6
aS'www.help.atavist.com'
p7
aS'www.twitter.com/atavist'
p8
aS'www.harvard.atavist.com/arts-shining-future?atavist-promo-ca3d583'
p9
aVwww.atavist.com/page/tos
p10
aVwww.atavist.com/page/press
p11
aVwww.atavist.com/for/chefs-recipes
p12
aS'www.cloeaxelson.atavist.com/makingamusical?atavist-promo-ca3d583'
p13
aS'www.help.atavist.com/faq'
p14
aVwww.atavist.com/page/about
p15
aVwww.atavist.com/page/privacy
p16
aS'www.facebook.com/atavist.inc'
p17
aVwww.atavist.com/for/education
p18
aVwww.atavist.com/signup
p19
aVwww.atavist.com/plans
p20
aS'www.stories.californiasunday.com/2014-12-07/pynchon-inherent-vice-los-angeles/?atavist-promo-ca3d583'
p21
aVwww.atavist.com/for/brands
p22
aVwww.atavist.com/for/business
p23
aVwww.atavist.com//magazine.atavist.com
p24
aVwww.atavist.com/for/pro
p25
aVwww.atavist.com/examples
p26
aVwww.atavist.com/#
p27
aVwww.atavist.com/forgot
p28
aS'www.alanviramontes.atavist.com/hopiheritage?atavist-promo-ca3d583'
p29
aS'www.unlphotojournalism.atavist.com/nicaragua?atavist-promo-ca3d583'
p30
aS'www.creatavist-ampaimmac.atavist.com/holi-walk?atavist-promo-ca3d583'
p31
aS'www.prestonmerchant.atavist.com/portfolio?atavist-promo-ca3d583'
p32
aS'www.mentalfloss.atavist.com/8-genius-ideas-that-are-changing-the-way-we-eat?atavist-promo-ca3d583'
p33
aS'www.schwafire.atavist.com/secret_linguistic_life_girls?atavist-promo-ca3d583'
p34
aS'www.frontline.atavist.com/alonza?atavist-promo-ca3d583'
p35
aS'www.catalinagaitan.atavist.com/a-state-in-transition?atavist-promo-ca3d583'
p36
aS'www.amhistory.atavist.com/adventures-with-objects?atavist-promo-ca3d583'
p37
aS'www.metmuseum.atavist.com/salgo?atavist-promo-ca3d583'
p38
aS'www.peacekeeping.atavist.com/minusca_eng?atavist-promo-ca3d583'
p39
aS'www.malteserint.atavist.com/jederfluechtlingehateinegeschichte?atavist-promo-ca3d583'
p40
aS'www.earthwatch.atavist.com/treesinthetundra?atavist-promo-ca3d583'
p41
aVwww.atavist.com/page/fee-policy
p42
aVwww.atavist.com/page/tos-2013
p43
aS'http://www.niemanlab.org/2015/03/atavist-revamps-its-publishing-software-to-push-design-and-readability-to-the-fore/'
p44
aS'http://www.hollywoodreporter.com/news/miles-teller-star-life-times-780166'
p45
aS'www.techcrunch.com/2014/12/01/built-in-brooklyn-atavist-is-both-publisher-and-platform-for-online-storytelling/'
p46
aS'http://www.capitalnewyork.com/article/media/2015/03/8564597/digital-platisher-atavist-gets-refresh'
p47
aS'www.gizmodo.com/the-one-ebook-you-have-to-read-if-you-care-about-the-fu-1690438494'
p48
aS'www.technical.ly/brooklyn/2014/10/22/atavist-closes-2-million-equity-round/'
p49
aS'http://www.huffingtonpost.com/2014/12/18/joel-lovell-this-american-life-atavist_n_6350104.html?1418940479'
p50
aS'http://www.fastcodesign.com/3044042/the-atavist-redesign-is-like-a-magic-word-processor'
p51
aVwww.atavist.com/mailto:media@atavist.com
p52
aS'http://www.capitalnewyork.com/article/media/2015/01/8559801/atavist-hires-katia-bachko-executive-editor'
p53
aS'www.adage.com/article/media/vogue-wins-magazine-year-national-magazine-awards/296946/'
p54
aS'www.sammywong.atavist.com/sweettreatsinpdx?atavist-promo-ca3d583'
p55
aS'www.quench.atavist.com/coffeemorethanmorningkick?atavist-promo-ca3d583'
p56
aS'www.88nine.atavist.com/bandcocktails?atavist-promo-ca3d583'
p57
aS'www.creatavist-8p9tn1h.atavist.com/el-noticiero-de-junio-2015?atavist-promo-ca3d583'
p58
aS'www.magazine.atavist.com'
p59
aS'www.magazine.atavist.com/privacy-policy-published-9-24-14/'
p60
aS'www.wisc.atavist.com/untitledproject-73th6?atavist-promo-ca3d583'
p61
aS'www.ricemagazine.atavist.com/taxi-detour?atavist-promo-ca3d583'
p62
aS'www.danikim.atavist.com/type-composition?atavist-promo-ca3d583'
p63
aS'www.austinhough.atavist.com/j2150nteamreynolds-jnsmp?atavist-promo-ca3d583'
p64
aS'www.djnf.atavist.com/phantom-in-phoenix?atavist-promo-ca3d583'
p65
aS'www.upwardbound2014.atavist.com/untitledproject-rxgm6?atavist-promo-ca3d583'
p66
aS'www.columbiavisualstory.atavist.com/policing-new-york?atavist-promo-ca3d583'
p67
aVwww.atavist.com/tos
p68
aVwww.atavist.com/signup?plan=pro
p69
aVwww.atavist.com/mailto:hi@atavist.com
p70
aVwww.atavist.com/signup?plan=tier2
p71
aVwww.atavist.com/signup?plan=tier3
p72
aVwww.atavist.com/signup?plan=tier1
p73
aS'www.bikeandsaddle.atavist.com/on-the-san-trail?atavist-promo-ca3d583'
p74
aS'www.stories.californiasunday.com/2014-10-05/googleplay/?atavist-promo-ca3d583'
p75
aS'www.stories.californiasunday.com/2014-10-05/mailchimp/?atavist-promo-ca3d583'
p76
aS'www.weather.atavist.com/boom?atavist-promo-ca3d583'
p77
aS'www.thedailydot.atavist.com/subwaysymphony?atavist-promo-ca3d583'
p78
aVwww.atavist.com/plans#feature-index
p79
aS'www.atavist.com'
p80
aS'www.hindustantimes.atavist.com/dilli6?atavist-promo-ca3d583'
p81
aS'www.heatherpidcock-reed.atavist.com/a-3-day-tour-of-boise?atavist-promo-ca3d583'
p82
aS'www.evaschulz.atavist.com/south-tlv?atavist-promo-ca3d583'
p83
aS'www.decatorevista.atavist.com/teach-for-romania?atavist-promo-ca3d583'
p84
aS'www.zerohora.atavist.com/custo-da-repressao?atavist-promo-ca3d583'
p85
aS'www.nepalitimes.atavist.com/as-remote-as-kathmandu-kgcds?atavist-promo-ca3d583'
p86
aS'www.michaeljaycox.atavist.com/hiphop?atavist-promo-ca3d583'
p87
aS'www.naplesnews.atavist.com/cuba?atavist-promo-ca3d583'
p88
aS'www.tabletmag.atavist.com/jerusalem-spring-2015?atavist-promo-ca3d583'
p89
aS'www.stripe.com/us/pricing'
p90
aVwww.atavist.com/page/copyright-policy
p91
aS'http://www.copyright.gov/legislation/dmca.pdf'
p92
a.