(lp1
Vwww.kitchit.com/#signup
p2
aS'www.kitchit.zendesk.com/hc/en-us/categories/201010227-Frequently-Asked-Questions'
p3
aVwww.kitchit.com/#
p4
aVwww.kitchit.com//chefs.kitchit.com
p5
aVwww.kitchit.com/#menu_navigation
p6
aS'www.kitchit.zendesk.com/hc/en-us/requests/new'
p7
aVwww.kitchit.com/gifts
p8
aVwww.kitchit.com/
p9
aS'www.chefs.kitchit.com'
p10
aVwww.kitchit.com/menus
p11
aVwww.kitchit.com/chefs
p12
aVwww.kitchit.com/terms
p13
aVwww.kitchit.com/#login
p14
aVwww.kitchit.com/terms/privacy
p15
aS'www.kitchit.zendesk.com/hc/en-us/articles/210492297-Which-areas-do-you-service-'
p16
aVwww.kitchit.com/mailto:support@kitchit.com
p17
aVwww.kitchit.com/menus/farmers-market
p18
aVwww.kitchit.com/menus/farmers-market-949c1922-d305-44b9-8891-74184a27a22d
p19
aVwww.kitchit.com/my/referrals
p20
aVwww.kitchit.com/menus/the-coastal-hook
p21
aVwww.kitchit.com/menus/southern-nights
p22
aVwww.kitchit.com/menus/cast-iron-classic
p23
aVwww.kitchit.com/#next_month
p24
aVwww.kitchit.com/menus/spring-fling
p25
aVwww.kitchit.com/#current_month
p26
aVwww.kitchit.com/menus/rites-of-spring
p27
aVwww.kitchit.com/menus/bayside-bistro
p28
aVwww.kitchit.com/menus/arabian-nights
p29
aS'www.stripe.com/us/terms'
p30
aS'www.kitchit.com'
p31
aS'www.stripe.com/connect/account-terms'
p32
aS'http://www.adr.org/aaa/ShowPDF?doc=ADRSTG_004175'
p33
aS'www.adr.org/aaa/ShowPDF?doc=ADRSTG_004314'
p34
aVwww.kitchit.com/mailto:terms@kitchit.com
p35
aS'http://www.looker.com/privacy'
p36
aS'www.google.com/analytics/learn/privacy.html'
p37
aS'www.optimizely.com/privacy/'
p38
aVwww.kitchit.com/menus#march
p39
aVwww.kitchit.com/menus#february
p40
a.