(lp1
Vwww.greylock.com/terms-of-use/
p2
aVwww.greylock.com/mailto:website@greylock.com
p3
aS'www.facebook.com/Greylock'
p4
aS'www.medium.com/@GreylockVC'
p5
aS'http://www.greylock.com/greylock-companies/'
p6
aS'www.linkedin.com/company/18077'
p7
aS'http://www.greylock.com/'
p8
aVwww.greylock.com/greylock-companies/
p9
aS'http://www.greylock.com'
p10
aVwww.greylock.com/news-archive/
p11
aVwww.greylock.com/#
p12
aVwww.greylock.com/communities
p13
aS'http://www.greylock.com/about-us/'
p14
aVwww.greylock.com/#homepage-content
p15
aS'http://www.fastcompany.com/most-innovative-companies?utm_content=buffer02331&utm_medium=social&utm_source=facebook.com&utm_campaign=buffer'
p16
aS'http://www.greylock.com/greylock-u/'
p17
aS'www.fortune.com/2016/02/16/nextdoor-expands-netherlands/'
p18
aS'www.medium.com/@joshelman/building-your-growth-model-and-ladder-of-engagement-3b3a18f2d1a8#.ympxw2924'
p19
aS'http://www.greylock.com/news-archive/'
p20
aS'www.medium.com/greylock-perspectives/how-to-build-an-enduring-multi-billion-dollar-business-hint-create-a-10x-product-recast-3527df2b8fcb#.uiejfrdr0'
p21
aVwww.greylock.com/what-defines-greylock/
p22
aS'http://www.greylock.com/news/'
p23
aVwww.greylock.com/about-us/
p24
aS'http://www.greylock.com/team/'
p25
aS'http://www.greylock.com/careers/'
p26
aS'http://www.workday.com/company/about_workday/our_story.php'
p27
aS'www.twitter.com/GreylockVC'
p28
aVwww.greylock.com/careers/
p29
aS'www.blog.avinetworks.com/microservices-applications-need-a-comprehensive-services-fabric'
p30
aS'www.youtube.com/user/greylockpartners'
p31
aS'www.lpweb.greylock.com/Equitrak_PRD/Pages/Login.aspx'
p32
aS'http://www.greylock.com/communities/'
p33
aS'www.medium.com/@saranormous/the-real-threat-of-security-inequality-d3cc93d5ad23#.7pa23d9c7'
p34
aVwww.greylock.com/greylock-u
p35
aS'www.medium.com/@sarahtavel/taking-the-wrong-lesson-from-uber-ae4b41e7c7da#.iiuur75p7://medium.com/@johnolilly/orders-of-magnitude-6a9fdb2036c5#.32nluv7xa'
p36
aS'www.reidhoffman.org/linkedin-pitch-to-greylock/'
p37
aS'http://www.greylock.com/category/portfolio/'
p38
aS'http://www.greylock.com/category/team/'
p39
aVwww.greylock.com/javascript:history.back()
p40
aS'http://www.greylock.com/category/perspectives/'
p41
aS'http://www.greylock.com/category/events/'
p42
aS'http://www.greylock.com/category/news/'
p43
aS'http://www.greylock.com/category/greymatter/'
p44
aVwww.greylock.com/#tellapart
p45
aVwww.greylock.com/#warpdrive-bio
p46
aVwww.greylock.com/#instagram
p47
aVwww.greylock.com/#richrelevance
p48
aVwww.greylock.com/#facebook-2
p49
aVwww.greylock.com/#workday
p50
aVwww.greylock.com/#red-hat
p51
aVwww.greylock.com/#jelly
p52
aVwww.greylock.com/#rhumbix
p53
aVwww.greylock.com/#techprocess
p54
aVwww.greylock.com/#cloudera
p55
aVwww.greylock.com/#figma
p56
aVwww.greylock.com/#palo-alto-networks
p57
aVwww.greylock.com/#oportun
p58
aVwww.greylock.com/#appdynamics
p59
aVwww.greylock.com/#lytro
p60
aVwww.greylock.com/#lookout
p61
aVwww.greylock.com/#avi-networks
p62
aVwww.greylock.com/#discord
p63
aVwww.greylock.com/#lyra-health
p64
aVwww.greylock.com/#medium
p65
aVwww.greylock.com/#sumo-logic
p66
aVwww.greylock.com/#swipely
p67
aVwww.greylock.com/#zuora
p68
aVwww.greylock.com/#whosay
p69
aVwww.greylock.com/#linkedin
p70
aVwww.greylock.com/#picarro
p71
aVwww.greylock.com/#grand-rounds
p72
aVwww.greylock.com/#wealthfront
p73
aVwww.greylock.com/#silver-peak-systems
p74
aVwww.greylock.com/#bounty-jobs
p75
aVwww.greylock.com/#docker
p76
aVwww.greylock.com/#domo
p77
aVwww.greylock.com/#constant-contact
p78
aVwww.greylock.com/#troux
p79
aVwww.greylock.com/#clearslide
p80
aVwww.greylock.com/#tumblr
p81
aVwww.greylock.com/#redfin
p82
aVwww.greylock.com/#wildtangent-2
p83
aVwww.greylock.com/#eatwith
p84
aVwww.greylock.com/#sparks
p85
aVwww.greylock.com/#edmodo
p86
aVwww.greylock.com/#wrapp
p87
aVwww.greylock.com/#nextdoor
p88
aVwww.greylock.com/#arista-networks
p89
aVwww.greylock.com/#vessel
p90
aVwww.greylock.com/#pure-storage
p91
aVwww.greylock.com/#matrixx-software
p92
aVwww.greylock.com/#healthhiway
p93
aVwww.greylock.com/#gofundme
p94
aVwww.greylock.com/#creativelive
p95
aVwww.greylock.com/#sprig
p96
aVwww.greylock.com/#toytalk
p97
aVwww.greylock.com/#xapo
p98
aVwww.greylock.com/#okta
p99
aVwww.greylock.com/#pandora
p100
aVwww.greylock.com/#rubrik
p101
aVwww.greylock.com/#quip
p102
aVwww.greylock.com/#tidemark
p103
aVwww.greylock.com/#opendns
p104
aVwww.greylock.com/#apptio
p105
aVwww.greylock.com/#delphix
p106
aVwww.greylock.com/#dwnld
p107
aVwww.greylock.com/#typesafe
p108
aVwww.greylock.com/#one-kings-lane
p109
aVwww.greylock.com/#aquantia
p110
aVwww.greylock.com/#quotient
p111
aVwww.greylock.com/#airbnb
p112
aVwww.greylock.com/#skyhigh-networks
p113
aVwww.greylock.com/#dropbox
p114
aVwww.greylock.com/#operator
p115
aVwww.greylock.com/#trifacta
p116
aVwww.greylock.com/#meerkat
p117
aVwww.greylock.com/#talko
p118
aS'www.time.com/4030665/reid-hoffman-will-ai-overtake-humans/'
p119
aS'http://www.greylock.com/building-growth-model-company/'
p120
aS'http://www.greylock.com/the-entrepreneur-questionnaire-glenn-kelman-ceo-of-redfin/'
p121
aS'www.medium.com/@sarahtavel/investing-in-drugs-5328bbf114c3'
p122
aS'http://www.greylock.com/press-start-to-continue/'
p123
aS'http://www.greylock.com/welcoming-mark-mclaughlin-to-palo-alto-networks/'
p124
aS'http://www.greylock.com/fueling-sumo-logic/'
p125
aS'www.medium.com/greylock-perspectives/kyle-anderson-joins-greylock-s-enterprise-investing-team-1e7fab2ea9a3'
p126
aS'http://www.greylock.com/josh-elman-on-cnbcs-power-pitch/'
p127
aS'http://www.linkedin.com/today/post/article/20130522031134-1213-class-of-2013-here-are-the-3-secrets-of-highly-successful-graduates'
p128
aS'http://www.greylock.com/shark-tank-pointers/'
p129
aS'http://www.greylock.com/early-principles-of-linkedin-a-reflection-of-our-series-b-investment/'
p130
aS'http://www.greylock.com/the-hackers-behind-greylock-hackfest-alexey-k/'
p131
aS'http://www.greylock.com/the-geek-shall-inherit-the-earth/'
p132
aS'http://www.inc.com/laura-montini/infographic/the-uncollared-worker-and-the-future-of-work.html'
p133
aS'www.medium.com/greylock-perspectives/let-s-talk-about-product-management-d7bc5606e0c4#.o6ek2lwgv'
p134
aS'http://www.greylock.com/our-investment-in-docker/'
p135
aS'http://www.greylock.com/welcome-ethan-beard/'
p136
aS'http://www.greylock.com/behind-the-investment-with-al-lieb-co-founder-ceo-of-clearslide-john-lilly/'
p137
aS'www.medium.com/notes-essays-cs183c-technology-enabled-blitzscalin/class-4-notes-essay-reid-hoffman-john-lilly-chris-yeh-and-allen-blue-s-cs183c-technology-428defb04850'
p138
aS'www.techcrunch.com/2015/04/19/fanbase-co-founders-discuss-their-pivot-to-nextdoor/'
p139
aS'http://www.greylock.com/recruiting-dna/'
p140
aS'http://www.huffingtonpost.com/charu-sharma/elisa-schreiber_b_6666704.html'
p141
aS'http://www.greylock.com/soul-of-a-virtual-machine/'
p142
aS'http://www.greylock.com/author/davidsze/'
p143
aS'http://www.greylock.com/four-takeaways-for-start-ups-from-last-weeks-adobe-auditude-acquisition/'
p144
aS'http://www.greylock.com/driving-in-the-networked-age/'
p145
aS'http://www.greylock.com/class-3-notes-from-reid-hoffman-john-lilly-chris-yeh-and-allen-blues-technology-enabled-blitzscaling-cs183c-class-at-stanford/'
p146
aS'http://www.greylock.com/david-sze-on-squawk-on-the-street-jan-29-2013/'
p147
aS'http://www.greylock.com/five-lessons-for-entrepreneurs-and-innovators/'
p148
aS'http://www.greylock.com/the-master-switch-by-tim-wu/'
p149
aS'http://www.greylock.com/beyond-the-install-10-keys-to-driving-sustainable-mobile-user-growth/'
p150
aS'http://www.greylock.com/cardspring-launches-payment-network-platform/'
p151
aS'www.venturebeat.com/2013/09/03/vmworld-too-big-to-fail-or-too-big-to-succeed/?utm_source=feedburner&utm_medium=feed&utm_campaign=Feed%3A+Venturebeat+%28VentureBeat%29'
p152
aS'http://www.greylock.com/author/johnlilly/'
p153
aS'http://www.greylock.com/jerry-chen-on-the-opportunities-challenges-for-vmworld/'
p154
aS'http://www.greylock.com/managing-talent-in-a-networked-age-2/'
p155
aS'http://www.greylock.com/thank-you-2015-bring-on-2016/'
p156
aS'http://www.greylock.com/what-it-takes-to-be-a-good-partner-to-founders/'
p157
aS'http://www.greylock.com/welcome-jerry-chen/'
p158
aS'http://www.greylock.com/a-blow-against-the-empire/'
p159
aS'http://www.greylock.com/david-still-joins-greylock-eir/'
p160
aS'http://www.greylock.com/people-first/'
p161
aS'http://www.greylock.com/investment-meerkat-power-spontaneous-togetherness/'
p162
aS'http://www.greylock.com/welcome-mike-hanson/'
p163
aS'http://www.greylock.com/joining-the-u-s-digital-service/'
p164
aS'www.techcrunch.com/2015/08/19/airbnb-and-the-humble-hustle/#.aywmhd:ydCh'
p165
aS'http://www.greylock.com/author/chrismccann/'
p166
aS'www.medium.com/@sarahtavel/times-have-changed-going-after-dollars-vs-minutes-4ec5a6dd2a01'
p167
aS'www.youtube.com/embed/QYBlxwenVko'
p168
aS'http://www.greylock.com/author/aneelbhusri/'
p169
aS'http://www.greylock.com/author/joshelman/'
p170
aS'http://www.greylock.com/asheem-chandnas-2014-predictions/'
p171
aS'http://www.forbes.com/sites/valleyvoices/2014/12/02/the-rise-of-the-uncollared-worker-and-the-future-of-the-middle-class/'
p172
aS'http://www.forbes.com/sites/bruceupbin/2011/05/11/seven-signs-of-a-customer-focused-ceo/'
p173
aS'http://www.greylock.com/welcome-kristin-richards-and-elisa-schreiber-to-greylock-partners/'
p174
aS'http://www.greylock.com/author/tomfrangione/'
p175
aS'http://www.greylock.com/the-entrepreneur-questionnaire-tim-westergren-founder-and-chief-strategy-officer-pandora/'
p176
aS'http://www.greylock.com/announcing-greylock-hackfest-2-0/'
p177
aS'http://www.greylock.com/not-always-up-to-the-right/'
p178
aS'http://www.greylock.com/times-have-changed-going-after-dollars-vs-minutes-2/'
p179
aS'http://www.greylock.com/author/elisa/'
p180
aS'www.gigaom.com/2013/10/19/why-salesforce-com-microsoft-and-emc-are-great-targets-for-opportunistic-startups/'
p181
aS'http://www.greylock.com/dreamforce-musings-why-the-real-cloud-has-gained-momentum/'
p182
aS'http://www.greylock.com/a-peek-inside-tellapart/'
p183
aS'www.mashable.com/2013/09/02/growth-hacking/?utm_campaign=Feed%3A+Mashable+%28Mashable%29&utm_cid=Mash-Prod-RSS-Feedburner-All-Partial&utm_medium=feed&utm_source=feedburner'
p184
aS'http://www.greylock.com/build-enduring-multi-billion-dollar-business/'
p185
aS'http://www.greylock.com/will-software-eliminate-physical-retail-not-quite/'
p186
aS'http://www.greylock.com/if-why-and-how-founders-should-hire-a-professional-ceo/'
p187
aS'http://www.greylock.com/40-bay-area-start-ups-and-you/'
p188
aS'http://www.greylock.com/how-one-vc-coaches-entrepreneurs-to-hire-dice-news-subhead/'
p189
aS'http://www.greylock.com/josh-elman-on-techcrunchs-ask-a-vc/'
p190
aS'www.medium.com/@greylockvc/from-uber-to-greylock-welcome-michael-pao-to-greylock-partners-165625ff6d00#.8hqty9e4f'
p191
aS'http://www.greylock.com/the-next-big-thing/'
p192
aS'http://www.greylock.com/managing-talent-in-a-networked-age/'
p193
aS'www.medium.com/@johnolilly/on-inevitability-pendula-41a5e59c3ba3'
p194
aS'http://www.greylock.com/announcing-our-investment-in-wealthfront-2/'
p195
aS'http://www.greylock.com/announcing-our-investment-in-trialpay/'
p196
aS'http://www.greylock.com/the-hackers-behind-greylocks-hackfest-richie-z/'
p197
aS'http://www.greylock.com/super-deal-of-the-day-for-groupon-and-congratulations-to-david-thacker/'
p198
aS'www.techcrunch.com/2011/02/11/how-e-commerce-got-its-groove-back/'
p199
aS'http://www.greylock.com/announcing-citrus-lane/'
p200
aS'http://www.greylock.com/google-motorola/'
p201
aS'www.medium.com/@greylockvc/welcome-sarah-tavel-to-greylock-partners-86c80058430f'
p202
aS'http://www.greylock.com/our-next-fund-and-our-path-forward/'
p203
aS'http://www.greylock.com/do-i-need-a-deck/'
p204
aS'http://www.greylock.com/investment-dwnld/'
p205
aS'http://www.greylock.com/seven-signs-of-a-customer-focused-ceo/'
p206
aS'http://www.wired.co.uk/magazine/archive/2015/06/features/bitcoin-reid-hoffman'
p207
aS'http://www.greylock.com/screens-storage-and-networks/'
p208
aS'http://www.greylock.com/seven-greylock-companies-named-to-business-insiders-silicon-valley-100-list/'
p209
aS'http://www.greylock.com/the-surest-way-to-build-a-billion-dollar-internet-company/'
p210
aS'http://www.greylock.com/reid-hoffmans-3-secrets-of-highly-successful-graduates/'
p211
aS'www.medium.com/notes-essays-cs183c-technology-enabled-blitzscalin/class-6-notes-essay-reid-hoffman-john-lilly-chris-yeh-and-allen-blue-s-cs183c-technology-51dff00975f0'
p212
aS'http://www.linkedin.com/today/post/article/20130228151014-1915923-people-first'
p213
aS'http://www.greylock.com/productsf-2014/'
p214
aS'http://www.greylock.com/building-mentor-relationships-2/'
p215
aS'http://www.greylock.com/7-cloud-trends-for-2014/'
p216
aS'http://www.greylock.com/welcome-to-the-new-greylock-partners-website/'
p217
aS'www.finance.yahoo.com/blogs/power-pitch/start-makes-millions-getting-students-cellphones-class-125401619.html#more-249'
p218
aS'http://www.greylock.com/announcing-chris-beard-as-greylock-executive-in-residence/'
p219
aS'http://www.greylock.com/three-steps-to-building-the-right-audience-through-email/'
p220
aS'http://www.greylock.com/acquiring-proven-entrepreneurs/'
p221
aS'http://www.greylock.com/how-to-make-an-executive-offer-and-succeed/'
p222
aS'www.linkedin.com/pulse/press-start-continue-one-more-role-founders-reid-hoffman'
p223
aS'http://www.greylock.com/the-entrepreneur-questionnaire-sunny-gupta-founder-and-ceo-of-apptio/'
p224
aS'http://www.greylock.com/our-investment-in-jelly/'
p225
aS'www.medium.com/backchannel/happy-10th-firefox-33ddae0a5b42'
p226
aS'www.venturebeat.com/2015/04/01/the-geek-shall-inherit-the-earth-the-age-of-developer-defined-infrastructure/'
p227
aS'http://www.greylock.com/greymatter-7m-100m/'
p228
aS'http://www.greylock.com/transforming-mental-health-care-through-technology/'
p229
aS'http://www.greylock.com/airbnbs-joe-gebbia-things-dont-scale/'
p230
aS'http://www.forbes.com/sites/alexkonrad/2013/12/31/vc-predictions-2014/'
p231
aS'http://www.greylock.com/reid-hoffman-on-bubbles-vc-turmoil-diversity-issues-in-tech-and-more/'
p232
aS'http://www.greylock.com/congrats-to-the-workday-team/'
p233
aS'www.techcrunch.com/2013/10/18/ask-a-vc-greylocks-simon-rothman-on-disruptive-marketplaces-greymarket-and-more/?ncid=twittersocialshare'
p234
aS'http://www.greylock.com/aneel-bhusri-in-fast-companys-100-most-creative-people-in-business/'
p235
aS'http://www.linkedin.com/today/post/article/20130916065028-1213-disrupting-the-diploma'
p236
aS'http://www.greylock.com/author/danportillo/'
p237
aS'http://www.greylock.com/pure-storage-reimagining-an-industry/'
p238
aS'http://www.greylock.com/greylock-builds-talent-team/'
p239
aS'http://www.greylock.com/some-of-the-best-investments-are-also-the-ones-that-a-lot-of-people-think-will-be-a-bad-investment/'
p240
aS'http://www.greylock.com/greylock-hackfest-talent-inspiration/'
p241
aVwww.greylock.com/javascript:;
p242
aS'http://www.greylock.com/greylock-partners-google-venture-product-manager-meetup/'
p243
aS'http://www.greylock.com/author/jeffmarkowitz/'
p244
aS'http://www.greylock.com/transforming-infrastructure/'
p245
aS'http://www.greylock.com/our-investment-in-quip/'
p246
aS'http://www.greylock.com/aapl-750b/'
p247
aS'http://www.greylock.com/josh-elman-on-the-5-phases-of-growth-hacking/'
p248
aS'http://www.ft.com/intl/cms/s/0/6031997c-ffc2-11e4-bc30-00144feabdc0.html#axzz3bMjmd0Rp'
p249
aS'www.bits.blogs.nytimes.com/2014/12/02/betting-on-security-start-ups-in-an-age-of-data-breaches/'
p250
aS'www.techcrunch.com/2013/09/10/greylock-disrupt-sf/'
p251
aS'http://www.greylock.com/clearslides-series-b/'
p252
aS'http://www.greylock.com/david-sze-on-investment-strategy/'
p253
aS'http://www.linkedin.com/today/post/article/20130321205111-456201-your-executive-talent-roadmap-six-tips-to-building-a-world-class-team'
p254
aS'http://www.greylock.com/author/jerrychen/'
p255
aS'http://www.greylock.com/announcing-our-investment-in-tumblr/'
p256
aS'www.medium.com/@mccannatron/prototyping-tools-and-process-ab63831f8486'
p257
aS'www.fortune.com/author/elisa-schreiber/'
p258
aS'http://www.greylock.com/greymatter-irrational/'
p259
aS'http://www.greylock.com/the-road-to-big-ideas-try-these-simple-habits/'
p260
aS'http://www.greylock.com/huffington-post-going-against-the-flow-elisa-schreiber-marketing-partner-at-greylock-partners/'
p261
aS'http://www.greylock.com/greylock-partners-welcomes-andy-johns/'
p262
aS'http://www.greylock.com/betting-on-security-start-ups-in-an-age-of-data-breaches/'
p263
aS'www.medium.com/@saranormous/not-every-startup-should-be-venture-backed-970d728059d'
p264
aS'http://www.greylock.com/nextdoor-goes-mobile/'
p265
aS'www.medium.com/@johnolilly/figma-194a73090cb6#.k0xqp8oe5'
p266
aS'http://www.greylock.com/how-will-they-make-money-is-the-wrong-question-2/'
p267
aS'http://www.businessinsider.com/amazon-wins-cloud-game-of-thrones-2013-9#ixzz2g6rcPNVq'
p268
aS'www.medium.com/@tomfrange/extending-a-technology-leadership-conversation-from-silicon-valley-to-london-d91057fab8f3#.qxk6ij3rr'
p269
aS'http://www.greylock.com/need-hiring-help-heres-a-how-to-hire-deck-from-one-of-the-valleys-hottest-vc-firms/'
p270
aS'http://www.greylock.com/bringing-silicon-valley-to-london/'
p271
aS'www.linkedin.com/pulse/joining-us-digital-service-daniel-portillo'
p272
aS'http://www.greylock.com/the-real-threat-of-security-inequality/'
p273
aS'http://www.greylock.com/pure-storage-launches/'
p274
aS'http://www.greylock.com/brainstorm-tech-spotlight-joseph-ansanelli-of-greylock-partners-fortune-tech/'
p275
aS'http://www.greylock.com/the-entrepreneur-questionnaire-brian-chesky-co-founder-and-ceo-of-airbnb/'
p276
aS'http://www.greylock.com/tours-of-duty-the-new-employer-employee-compact/'
p277
aS'www.bits.blogs.nytimes.com/2012/04/10/one-on-one-asheem-chandna-venture-capitalist/'
p278
aS'http://www.greylock.com/tumblr-human-scale-design/'
p279
aS'http://www.greylock.com/race-beige-honda-accord/'
p280
aS'http://www.greylock.com/what-i-wish-i-knew-before-pitching-linkedin-to-vcs/'
p281
aS'http://www.greylock.com/how-e-commerce-got-its-groove-back/'
p282
aS'http://www.greylock.com/amazon-wins-cloud-game-of-thrones/'
p283
aS'http://www.greylock.com/congratulations-to-appdynamics/'
p284
aS'http://www.greylock.com/thought-storming/'
p285
aS'http://www.greylock.com/why-greylock-is-committing-100m-to-marketplaces/'
p286
aS'http://www.greylock.com/reid-hoffman-talks-assembling-an-airplane-midair-and-founding-linkedin/'
p287
aS'http://www.linkedin.com/today/post/article/20130924095352-47201-how-i-hire-what-motivates-you?trk=cha-feed-art-title-10000316'
p288
aS'http://www.newsweek.com/2014/06/13/how-greylock-partners-finds-next-facebook-253329.html'
p289
aS'http://www.greylock.com/5-things-you-must-consider-when-making-a-job-offer/'
p290
aS'http://www.greylock.com/howie-xu-joins-greylock-eir/'
p291
aS'www.medium.com/greylock-perspectives/how-to-build-an-enduring-multi-billion-dollar-business-hint-create-a-10x-product-recast-3527df2b8fcb#.245odftv1'
p292
aS'http://www.greylock.com/generation-touch-will-redraw-consumer-tech/'
p293
aS'www.medium.com/@saranormous/no-you-don-t-own-the-customer-anymore-the-new-age-of-saas-competition-fc3c792c967f'
p294
aS'http://www.greylock.com/ask-for-the-business/'
p295
aS'http://www.greylock.com/the-entrepreneur-questionnaire-josh-silverman-former-ceo-of-skype/'
p296
aS'http://www.greylock.com/startups-how-to-storyboard-your-pitch-deck-in-10-steps/'
p297
aS'http://www.greylock.com/our-investment-in-discord/'
p298
aS'www.medium.com/greylock-perspectives/kit-ff7d8e73d081'
p299
aS'http://www.greylock.com/hacked-vs-hackers-game-on/'
p300
aS'http://www.greylock.com/the-hackers-behind-greylocks-hackfest-alice-l/'
p301
aS'http://www.greylock.com/congratulations-to-steven-boal-and-the-entire-coupons-com-team/'
p302
aS'http://www.greylock.com/mozilla-story-making-world-want/'
p303
aS'http://www.bloomberg.com/video/reid-hoffman-discusses-founding-linkedin-P6pT1HPQQaSQqcRZ7SPeZA.html'
p304
aS'www.medium.com/@joshelman/thought-storming-51ac5b10e0c9'
p305
aS'http://www.greylock.com/welcome-bobby-goodlatte-2/'
p306
aS'http://www.greylock.com/timehop-surfaces-all-sorts-of-amazing-things-for-me/'
p307
aS'www.medium.com/@joshelman/hustle-and-getting-hired-by-a-startup-23a55207ac5c'
p308
aS'www.medium.com/greylock-perspectives/josh-silverman-joins-greylock-partners-as-eir-e45c5885d3d5#.dbhn758h3'
p309
aS'http://www.greylock.com/how-can-i-pitch-my-startup-to-greylock/'
p310
aS'http://www.greylock.com/our-investment-in-rubrik/'
p311
aS'www.recode.net/2014/01/03/reid-hoffman-on-bubbles-vc-turmoil-diversity-issues-in-tech-and-more/'
p312
aS'www.medium.com/@sarahtavel/taking-the-wrong-lesson-from-uber-ae4b41e7c7da#.qycxzpkq1'
p313
aS'http://www.greylock.com/887/'
p314
aS'www.medium.com/@greylockvc/greylock-is-hiring-for-our-investment-team-c6f33a1a51bf#.v01mj38kq'
p315
aS'http://www.greylock.com/ten-entrepreneurship-rules-for-building-massive-companies/'
p316
aS'http://www.greylock.com/author/josephansanelli/'
p317
aS'http://www.greylock.com/is-your-team-in-the-zone/'
p318
aS'http://www.greylock.com/fortune-500-features-linkedin-board/'
p319
aS'http://www.bloomberg.com/video/what-will-a-public-twitter-look-like-eF1QR2aJRy~c3OaTlR~2pw.html'
p320
aS'www.medium.com/@johnolilly/orders-of-magnitude-6a9fdb2036c5#.aca7bg2dv'
p321
aS'http://www.greylock.com/on-inevitability-pendula/'
p322
aS'http://www.greylock.com/winners-and-losers-in-the-last-second-economy/'
p323
aS'www.linkedin.com/pulse/20140121122420-47201-productivity-hacks-no-agenda-no-meeting-no-exceptions?trk=eml-ced-b-art-M-0&ut=0R4WWXiEldCm41'
p324
aS'http://www.greylock.com/congratulations-to-zenprise-and-citrix/'
p325
aS'www.medium.com/@greylockvc/david-mcjannet-joins-greylock-as-eir-887682a65e70#.augkatwho'
p326
aS'www.medium.com/@johnolilly/microsoft-minecraft-bbc92807bcad'
p327
aS'http://www.greylock.com/author/simonrothman/'
p328
aS'http://www.greylock.com/ipos-must-do-list/'
p329
aS'http://www.greylock.com/welcome-sarah-tavel-to-greylock/'
p330
aS'http://www.greylock.com/units-of-value-a-framework-for-scaling/'
p331
aS'http://www.greylock.com/investment-operator/'
p332
aS'http://www.greylock.com/insights-from-productsf%e2%80%8a/'
p333
aS'http://www.greylock.com/the-credit-card-is-the-new-app-platform/'
p334
aS'http://www.greylock.com/greylock-partners-welcomes-data-wizard-dj-patil/'
p335
aVwww.greylock.com/Link
p336
aS'http://www.greylock.com/3-essential-steps-to-doing-a-thorough-reference-check/'
p337
aS'http://www.greylock.com/not-every-startup-should-be-venture-backed/'
p338
aS'http://www.greylock.com/class-3-notes-from-technology-enabled-blitzscaling/'
p339
aS'www.medium.com/notes-essays-cs183c-technology-enabled-blitzscalin/class-3-notes-essay-reid-hoffman-john-lilly-chris-yeh-and-allen-blue-s-cs183c-technology-35e5514ec814'
p340
aS'http://www.fastcompany.com/3011954/30-second-mba/reid-hoffman-can-anyone-be-an-entrepreneur'
p341
aS'www.medium.com/@joshelman/574ee2f93889'
p342
aS'http://www.greylock.com/our-investment-in-wrapp/'
p343
aS'http://www.greylock.com/our-investment-in-rhumbix/'
p344
aS'http://www.greylock.com/evite-co-founder-al-lieb-is-back-in-the-startup-game-as-ceo-of-clearslide/'
p345
aS'http://www.greylock.com/6-insider-secrets-to-partnering-with-executive-recruiters/'
p346
aS'http://www.greylock.com/author/sarahguo/'
p347
aS'www.linkedin.com/pulse/20130614161045-47201-5-things-you-must-consider-when-making-a-job-offer?published=t'
p348
aS'www.bits.blogs.nytimes.com/2014/12/02/hacked-vs-hackers-game-on/'
p349
aS'http://www.greylock.com/one-on-one-asheem-chandna-venture-capitalist/'
p350
aS'www.medium.com/@joshelman/four-questions-to-understanding-adoption-8fc499910e8a'
p351
aS'http://www.greylock.com/my-talk-at-the-house-of-commons/'
p352
aS'http://www.greylock.com/design-like-youre-right-listen-like-youre-wrong/'
p353
aS'http://www.greylock.com/how-founders-can-tell-a-great-startup-story/'
p354
aS'http://www.greylock.com/five-things-that-americas-top-schools-could-learn-from-a-two-year-old-startup/'
p355
aS'http://www.businessinsider.com/a-how-to-hire-deck-by-greylock-partners-2013-7?op=1'
p356
aS'www.fortune.com/2015/01/22/10-business-unicorn-wannabes/'
p357
aS'www.blog.semilshah.com/2013/10/02/a-career-of-company-building-text-of-my-discussion-with-david-sze/'
p358
aS'http://www.greylock.com/our-investment-in-nextdoor/'
p359
aS'http://www.greylock.com/author/davidthacker/'
p360
aS'http://www.greylock.com/headline-the-entrepreneur-questionnaire-nir-zuk-founder-and-cto-of-palo-alto-networks/'
p361
aS'http://www.greylock.com/josh-silverman-joins-greylock-partners-as-eir/'
p362
aS'http://www.greylock.com/four-questions-towards-understanding-user-adoption-of-your-product/'
p363
aS'www.reports.weforum.org/dealing-with-disruption-clearing-pathways-for-entrepreneurial-innovation/section-3-leveraging-disruption-for-society/marketplaces-and-the-transformation-of-the-workforce-simon-rothman-greylock-partners/?code=OR004'
p364
aS'http://www.forbes.com/sites/georgeanders/2013/09/16/snubbed-by-oracle-workdays-duffield-and-bhusri-hit-jackpot/'
p365
aS'http://www.fastcompany.com/3009151/most-creative-people-2013/74-aneel-bhusri'
p366
aS'http://www.greylock.com/how-sharing-economy-jobs-stack-up-against-traditional-ones-infographic/'
p367
aS'www.on.aol.com/video/tellapart--the-champagne-soaked-startup-hq-518060553'
p368
aS'http://www.heavybit.com/library/video/2014-11-04-jerry-chen'
p369
aS'www.medium.com/@joshelman/do-i-need-a-deck-a1a4150782c#.weqgtynl9'
p370
aS'http://www.greylock.com/prototyping-tools-and-process/'
p371
aS'http://www.greylock.com/hustle-and-getting-hired-by-a-startup/'
p372
aS'http://www.greylock.com/hiring-your-first-set-of-employees/'
p373
aS'www.medium.com/@greylockvc/it-all-started-on-a-shower-wall-panel-behind-the-scenes-of-the-tellapart-twitter-story-9899768259cc'
p374
aS'http://www.greylock.com/the-entrepreneur-questionnaire-john-hayes-co-founder-and-chief-architect-of-pure-storage/'
p375
aS'http://www.greylock.com/why-im-joining-greylock-partners/'
p376
aS'www.medium.com/@joshelman/thank-you-2015-bring-on-2016-b1f52db950ef#.4oryv8r54'
p377
aS'http://www.greylock.com/why-the-block-chain-matters/'
p378
aS'http://www.greylock.com/bringing-trifacta-to-scale-to-transform-big-data/'
p379
aS'http://www.greylock.com/sarah-guo-joins-greylock-enterprise-team/'
p380
aS'http://www.linkedin.com/today/post/article/20130208012431-1213-will-software-eliminate-physical-retail-not-quite'
p381
aS'http://www.greylock.com/the-rise-of-the-uncollared-worker-and-the-future-of-the-middle-class/'
p382
aS'http://www.greylock.com/lets-congratulate-our-newest-partner-elisa-schreiber/'
p383
aS'http://www.greylock.com/author/erikabrown/'
p384
aS'http://www.greylock.com/greylock-is-hiring-for-our-investing-team/'
p385
aS'www.medium.com/@joshelman/friending-is-so-different-than-following-i-was-talking-through-this-with-a-few-different-founders-b3a6e0854a0'
p386
aS'www.techcrunch.com/2015/12/10/the-essentials-of-hiring-an-exceptional-startup-team/'
p387
aS'http://www.greylock.com/author/frankslootman/'
p388
aS'http://www.greylock.com/moving-in-to-nextdoor/'
p389
aS'www.techcrunch.com/2013/12/27/as-marketplaces-evolve-greylock-places-its-bets/'
p390
aS'www.techcrunch.com/2015/05/24/lessons-in-growing-revenue-from-twitters-latest-acquisition-tellapart/'
p391
aS'www.gigaom.com/2013/11/23/the-it-triangle-strategy-for-evaluating-enterprise-tech-startups/'
p392
aS'www.techcrunch.com/2014/11/15/managing-talent-in-a-networked-age-part-2/'
p393
aS'www.medium.com/notes-essays-cs183c-technology-enabled-blitzscalin/class-5-notes-essay-reid-hoffman-john-lilly-chris-yeh-and-allen-blue-s-cs183c-technology-468d351b6617'
p394
aS'www.linkedin.com/pulse/20141103185635-47201-building-mentor-relationships'
p395
aS'http://www.greylock.com/behind-the-scenes-of-the-tellapart-twitter-story/'
p396
aS'http://www.greylock.com/marketplaces-and-the-transformation-of-the-workforce/'
p397
aS'http://www.greylock.com/how-a-very-smart-toaster-won-greylock-hackfest-12/'
p398
aS'http://www.greylock.com/why-we-invested-in-typesafe-modern-applications-demand-modern-tools/'
p399
aS'www.medium.com/@joshelman/media-companies-don-t-let-your-traffic-run-out-the-side-door-e9396df41b7e'
p400
aS'www.techcrunch.com/2015/07/19/from-beanie-babies-to-bugattis-building-an-enduring-marketplace/'
p401
aS'http://www.greylock.com/author/djpatil/'
p402
aS'www.video.cnbc.com/gallery/?video=3000172244'
p403
aS'http://www.greylock.com/the-entrepreneur-questionnaire-david-ulevitch-founder-and-ceo-opendns/'
p404
aS'http://www.greylock.com/announcing-our-investment-in-coupons-com/'
p405
aS'http://www.greylock.com/friending-vs-following/'
p406
aS'http://www.greylock.com/author/adamnash/'
p407
aS'http://www.greylock.com/the-it-triangle-strategy-for-evaluating-enterprise-tech-startups/'
p408
aS'http://www.greylock.com/taking-the-wrong-lesson-from-uber/'
p409
aS'http://www.greylock.com/investing-in-drugs/'
p410
aS'http://www.greylock.com/sanjay-raman-joins-greylock-consumer-team/'
p411
aS'www.medium.com/@johnolilly/the-revolution-has-not-yet-succeeded-7513f1b0a80b'
p412
aS'www.linkedin.com/pulse/herd-unicorns-reid-hoffman?utm_content=buffer83dea&utm_medium=social&utm_source=twitter.com&utm_campaign=buffer'
p413
aS'http://www.greylock.com/palo-alto-networks-greymatter/'
p414
aS'http://www.greylock.com/a-herd-of-unicorns/'
p415
aS'http://www.greylock.com/no-you-dont-own-the-customer-anymore%e2%80%8a/'
p416
aS'http://www.greylock.com/learning-recruiting-shortcuts/'
p417
aS'http://www.greylock.com/welcome-evan-tana-2/'
p418
aS'http://www.greylock.com/how-greylock-partners-finds-the-next-facebook/'
p419
aS'http://www.greylock.com/ask-a-vc-greylocks-simon-rothman-on-disruptive-marketplaces-greymarket-and-more-techcrunch/'
p420
aS'www.linkedin.com/today/post/article/20130926030101-29380071-adult-supervision'
p421
aS'http://www.greylock.com/congratulations-frank/'
p422
aS'http://www.greylock.com/author/alirosenthal/'
p423
aS'www.medium.com/@johnolilly/aapl-750b-b0dfbf60e647'
p424
aS'www.medium.com/@greylockvc/our-investment-in-rubrik-apple-like-simplicity-and-delight-for-your-data-center-b4941bda0569'
p425
aS'www.techcrunch.com/2015/11/19/how-pure-storage-took-a-different-approach-to-storage/'
p426
aS'http://www.greylock.com/behind-the-investment-joseph-ansanelli/'
p427
aS'http://www.greylock.com/our-investment-in-smartthings/'
p428
aS'http://www.greylock.com/user-acquisition-virality-and-mobile/'
p429
aS'http://www.greylock.com/greymatter-local-pivot/'
p430
aS'http://www.greylock.com/reid-hoffman-answers-the-question-can-anyone-be-an-entrepreneur/'
p431
aS'http://www.greylock.com/greylock-invests-in-trifacta/'
p432
aS'http://www.mercurynews.com/business/ci_24243596/elevator-pitch-josh-elman-greylock-partners.html'
p433
aS'http://www.greylock.com/welcome-dev-ittycheria/'
p434
aS'http://www.greylock.com/passing-the-10-second-test/'
p435
aS'http://www.greylock.com/robots-will-take-our-jobs-but-we-will-adapt/'
p436
aS'http://www.greylock.com/adult-supervision/'
p437
aS'http://www.greylock.com/josh-elman-entrepreneurial-thinking/'
p438
aS'http://www.greylock.com/author/jamesslavet/'
p439
aS'http://www.greylock.com/how-i-hire-what-motivates-you/'
p440
aS'www.video.cnbc.com/gallery/?play=1&video=3000144443'
p441
aS'http://www.greylock.com/10-reasons-why-michael-arrington-shouldnt-be-bored-by-enterprise-software/'
p442
aS'http://www.greylock.com/saving-peoples-lives-and-lowering-healthcare-costs_-_why-we-invested-in-grand-rounds/'
p443
aS'http://www.greylock.com/smartthings-samsung-and-the-future-of-the-connected-home/'
p444
aS'http://www.greylock.com/author/billkaiser/'
p445
aS'www.medium.com/greylock-perspectives/unit-of-value-a-framework-for-scaling-42c092fba887#.wixibllop'
p446
aS'http://www.greylock.com/stanford-gsb-talk-on-mozilla-and-scaling/'
p447
aS'http://www.greylock.com/welcome-joseph-ansanelli/'
p448
aS'http://www.greylock.com/figma/'
p449
aS'www.medium.com/@johnolilly/our-investment-in-quip-50790cb888ce'
p450
aS'http://www.greylock.com/the-entrepreneur-questionnaire-brian-biles-co-founder-of-data-domain/'
p451
aS'http://www.greylock.com/john-lillys-advice-to-founders/'
p452
aS'http://www.inc.com/ss/17-startup-founders-on-how-become-insanely-successful#11'
p453
aS'http://www.greylock.com/seeking-inspiration-get-outside-the-walls/'
p454
aS'http://www.greylock.com/why-we-invested-in-groupon-the-power-of-data/'
p455
aS'www.techcrunch.com/2013/09/10/greylock-14/'
p456
aS'http://www.greylock.com/dont-let-your-traffic-run-out-the-side-door/'
p457
aS'http://www.greylock.com/jerry-chen-talks-investing-with-nbcs-press/'
p458
aS'www.techcrunch.com/2015/02/06/how-to-make-an-executive-offer-and-succeed/'
p459
aS'http://www.greylock.com/failure-is-our-only-option/'
p460
aS'www.techcrunch.com/2015/09/30/palo-alto-networks-and-preserving-culture-from-15-people-to-15b/'
p461
aS'www.medium.com/@jerrychen/soul-of-a-virtual-machine-392477922215'
p462
aS'http://www.greylock.com/announcing-greylocks-investment-in-zenprise/'
p463
aS'http://www.greylock.com/the-hackers-behind-greylocks-hackfest-ritik-m/'
p464
aS'http://www.greylock.com/startups-from-a-to-sze/'
p465
aS'http://www.greylock.com/the-revolution-has-not-yet-succeeded/'
p466
aS'http://www.greylock.com/david-hahn-joins-greylock-as-eir/'
p467
aS'http://www.greylock.com/productivity-hacks-no-agenda-no-meeting-no-exceptions/'
p468
aS'http://www.greylock.com/our-investment-in-talko-2/'
p469
aS'http://www.greylock.com/author/asheemchandna/'
p470
aS'http://www.greylock.com/disrupting-the-diploma/'
p471
aS'www.techcrunch.com/2013/09/29/generation-touch-will-redraw-consumer-tech/'
p472
aS'http://www.greylock.com/author/brendanbaker/'
p473
aS'http://www.greylock.com/the-hackers-behind-greylocks-hackfest-feross-a/'
p474
aS'www.medium.com/@greylockvc/david-still-joins-greylock-as-eir-6e86734c5bee#.esoip66tc'
p475
aS'http://www.greylock.com/growth-stacks/'
p476
aS'http://www.greylock.com/author/reidhoffman/'
p477
aS'http://www.greylock.com/asymmetry/'
p478
aS'http://www.greylock.com/microsoft-minecraft/'
p479
aS'http://www.greylock.com/lets-talk-about-product-management/'
p480
aS'http://www.greylock.com/workdays-year-of-transformation/'
p481
aS'http://www.greylock.com/announcing-the-launch-of-skyhigh-networks-and-greylocks-investment/'
p482
aS'http://www.greylock.com/welcome-ali-rosenthal/'
p483
aS'www.hbr.org/2013/06/tours-of-duty-the-new-employer-employee-compact/ar/pr'
p484
aS'www.medium.com/@johnolilly/design-like-you-re-right-listen-like-you-re-wrong-308e3930fdbf'
p485
aS'http://www.greylock.com/from-uber-to-greylock/'
p486
aS'http://www.greylock.com/greylock-has-a-new-logo/'
p487
aS'http://www.greylock.com/our-investment-in-eatwith-the-dinner-table-as-the-original-social-network/'
p488
aS'http://www.greylock.com/unit-of-value/'
p489
aS'http://www.greylock.com/welcome-adam-nash/'
p490
aS'http://www.greylock.com/what-surprising-factors-make-a-strong-investment/'
p491
aS'http://www.forbes.com/sites/bruceupbin/2011/07/18/how-to-write-e-mails-your-customers-will-actually-read/'
p492
aS'http://www.greylock.com/kit/'
p493
aS'http://www.greylock.com/please-help-us-congratulate-dan-portillo/'
p494
aS'www.medium.com/@greylockvc/fueling-sumo-logic-to-be-the-cloud-platform-for-machine-data-analytics-e15aedc49f49'
p495
aS'http://www.greylock.com/help-us-congratulate-josh-elman/'
p496
aS'http://www.greylock.com/orders-of-magnitude/'
p497
aS'www.medium.com/@johnolilly/our-investment-in-dwnld-efee9e280d8f'
p498
aS'http://www.greylock.com/joseph-ansanelli-forget-exit-think-success-strategy/'
p499
aS'http://www.greylock.com/david-mcjannet-joins-greylock-eir/'
p500
aS'http://www.forbes.com/sites/bruceupbin/2011/12/13/five-new-management-metrics-you-need-to-know/'
p501
aS'www.blogs.wsj.com/tech-europe/2010/11/18/linkedins-reid-hoffman-five-lessons-for-entrepreneurs/?KEYWORDS=reid+hoffman'
p502
aS'www.linkedin.com/pulse/20131002155905-456201-3-essential-steps-to-doing-a-thorough-reference-check'
p503
aS'www.news.dice.com/startuppost/one-vc-coaches-entrepreneurs-hire/'
p504
aS'www.techcrunch.com/2014/11/09/managing-talent-in-a-networked-age/'
p505
aS'http://www.greylock.com/greylock-partners-behind-the-investment-trifacta/'
p506
aS'http://www.forbes.com/sites/bruceupbin/2012/12/14/winners-and-losers-in-the-last-second-economy/'
p507
aS'http://www.greylock.com/new-adventures/'
p508
aS'http://www.greylock.com/starting-downturn/'
p509
aS'http://www.greylock.com/airbnb-redfin-uber-and-the-rise-of-the-e2e-movement/'
p510
aS'http://www.greylock.com/class-6-notes-from-technology-enabled-blitzscaling/'
p511
aS'www.linkedin.com/pulse/learning-recruiting-daniel-portillo'
p512
aS'http://www.greylock.com/welcome-kyle-anderson/'
p513
aS'www.linkedin.com/pulse/driving-networked-age-reid-hoffman'
p514
aS'www.medium.com/@mccannatron/growth-stacks-a-quantitative-look-into-the-tools-growth-teams-use-3829b22f8aa8'
p515
aS'http://www.greylock.com/welcome-josh-elman/'
p516
aS'http://www.greylock.com/how-to-write-emails-your-customers-will-actually-read/'
p517
aS'http://www.greylock.com/why-salesforce-com-microsoft-and-emc-are-great-targets-for-opportunistic-startups/'
p518
aS'http://www.viddler.com/v/29fbdafb'
p519
aS'http://www.greylock.com/as-marketplaces-evolve-greylock-places-its-bets-techcrunch/'
p520
aS'http://www.greylock.com/greylocks-investment-in-sprig/'
p521
aS'http://www.greylock.com/your-executive-talent-roadmap/'
p522
aS'http://www.greylock.com/the-billion-dollar-club-10-business-software-wannabes/'
p523
aS'http://www.greylock.com/memorials-in-the-digital-age/'
p524
aS'http://www.greylock.com/essentials-hiring-exceptional-startup-team/'
p525
aS'http://www.greylock.com/our-investment-in-vessel/'
p526
aS'http://www.greylock.com/one-kings-lane-raises-40-million/'
p527
aS'http://www.greylock.com/our-investment-in-xapo/'
p528
aS'http://www.greylock.com/reid-hoffman-on-naming-linkedin/'
p529
aS'http://www.greylock.com/author/sarah-tavel/'
p530
aS'http://www.forbes.com/sites/bruceupbin/2013/04/03/the-surest-way-to-build-a-billion-dollar-internet-company/'
p531
aS'http://www.greylock.com/building-your-growth-model-and-ladder-of-engagement/'
p532
aS'http://www.greylock.com/class-5-notes-from-technology-enabled-blitzscaling/'
p533
aS'www.techcrunch.com/2015/06/28/redfins-irrational-moment/'
p534
aS'www.medium.com/@joshelman/our-investment-in-meerkat-and-the-power-of-spontaneous-togetherness-801fdd4b2818'
p535
aVwww.greylock.com/#legal
p536
aVwww.greylock.com/#big-data
p537
aS'www.greylockpartners.wufoo.com/forms/apply-to-join-a-greylock-partners-community/'
p538
aVwww.greylock.com/#infrastructure-engineering
p539
aVwww.greylock.com/#enterprise-product
p540
aVwww.greylock.com/#marketplace-founders
p541
aVwww.greylock.com/#design
p542
aVwww.greylock.com/#security
p543
aVwww.greylock.com/#growth
p544
aVwww.greylock.com/#women-who-build
p545
aVwww.greylock.com/#consumer-product
p546
aVwww.greylock.com/#data-science
p547
aS'www.greylock.com//what-defines-greylock/'
p548
aVwww.greylock.com/greylock-companies/#consumer
p549
aVwww.greylock.com/greylock-companies/#enterprise
p550
aVwww.greylock.com/mailto:businessplans@greylock.com
p551
aVwww.greylock.com/mailto:press@greylock.com
p552
aS'www.greylockpartners.wufoo.com/forms/apply-to-join-greylock-partners-talent-network/'
p553
aS'http://www.greylock.com/greylock-u/techfair/'
p554
aS'www.104.130.215.28/greylock-u/techfair/'
p555
aVwww.greylock.com/greylock-u/techfair/
p556
aS'http://www.greylock.com/greylock-u/hackfest/'
p557
aS'www.104.130.215.28/greylock-u/hackfest/'
p558
aVwww.greylock.com/greylock-u/hackfest/
p559
aVwww.greylock.com/#portfolio-resume
p560
aS'www.okta.com'
p561
aS'www.quora.com'
p562
aS'www.skyhighnetworks.com'
p563
aS'www.fitbit.com'
p564
aS'www.maps.google.com/maps?saddr=current+location&daddr=ATT+Park,+San+Francisco,+CA&hl=en'
p565
aS'www.figma.com'
p566
aS'www.grandrounds.com'
p567
aS'www.sagansystems.com'
p568
aS'www.piazza.com'
p569
aS'www.nutanix.com'
p570
aS'www.goo.gl/maps/YnaOT'
p571
aS'www.asana.com'
p572
aS'www.weebly.com'
p573
aVwww.greylock.com/mailto:techfair@greylock.com
p574
aS'www.linkedin.com'
p575
aS'www.thumbtack.com'
p576
aS'www.addepar.com'
p577
aS'www.accompany.com/team'
p578
aS'www.coursera.com'
p579
aS'www.stacksware.com'
p580
aS'www.dropbox.com'
p581
aS'www.redfin.com'
p582
aS'www.shopkick.com'
p583
aS'www.sprig.com'
p584
aS'www.etsy.com'
p585
aS'www.instacart.com'
p586
aS'www.docker.com'
p587
aS'www.purestorage.com'
p588
aS'www.appdynamics.com'
p589
aS'www.facebook.com'
p590
aS'www.airbnb.com'
p591
aS'www.plangrid.com'
p592
aS'www.trifacta.com'
p593
aS'www.nextdoor.com'
p594
aS'www.eventbrite.com'
p595
aS'www.qualtrics.com'
p596
aS'www.cloudera.com'
p597
aS'www.clearslide.com'
p598
aS'www.affirm.com'
p599
aS'www.sumologic.com'
p600
aS'www.awakenetworks.com'
p601
aS'www.operator.com'
p602
aS'www.wealthfront.com'
p603
aS'www.pinterest.com'
p604
aS'www.meerkatapp.co'
p605
aS'www.clari.com'
p606
aS'www.yelp.com'
p607
aS'www.nerdwallet.com'
p608
aS'www.gonitro.com'
p609
aS'www.workday.com'
p610
aS'www.houzz.com'
p611
aS'www.rubrik.com'
p612
aS'www.hackerrank.com'
p613
aS'www.vessel.com'
p614
aS'www.2szmfw11mfh022c3yb16uj3i.wpengine.netdna-cdn.com/wp-content/uploads/2015/10/IMG_8898.jpg'
p615
aS'www.2szmfw11mfh022c3yb16uj3i.wpengine.netdna-cdn.com/wp-content/uploads/2015/10/IMG_8550.jpg'
p616
aS'www.linkedin.com/in/kevinsystrom'
p617
aS'http://www.svb.com/'
p618
aS'www.2szmfw11mfh022c3yb16uj3i.wpengine.netdna-cdn.com/wp-content/uploads/2015/10/IMG_8217.jpg'
p619
aS'www.linkedin.com/in/gaganbiyani'
p620
aS'www.airbnb.com/'
p621
aS'www.2szmfw11mfh022c3yb16uj3i.wpengine.netdna-cdn.com/wp-content/uploads/2015/10/IMG_8316.jpg'
p622
aS'www.2szmfw11mfh022c3yb16uj3i.wpengine.netdna-cdn.com/wp-content/uploads/2015/10/IMG_8591.jpg'
p623
aS'www.2szmfw11mfh022c3yb16uj3i.wpengine.netdna-cdn.com/wp-content/uploads/2015/10/IMG_8145.jpg'
p624
aS'www.nextdoor.com/'
p625
aS'www.linkedin.com/in/scottdietzen'
p626
aS'www.linkedin.com/in/kevinrose'
p627
aS'www.2szmfw11mfh022c3yb16uj3i.wpengine.netdna-cdn.com/wp-content/uploads/2015/10/IMG_8109.jpg'
p628
aS'www.2szmfw11mfh022c3yb16uj3i.wpengine.netdna-cdn.com/wp-content/uploads/2015/10/IMG_8324.jpg'
p629
aS'www.2szmfw11mfh022c3yb16uj3i.wpengine.netdna-cdn.com/wp-content/uploads/2015/10/IMG_8182.jpg'
p630
aS'www.linkedin.com/in/schrep'
p631
aS'www.2szmfw11mfh022c3yb16uj3i.wpengine.netdna-cdn.com/wp-content/uploads/2015/10/IMG_8406.jpg'
p632
aS'www.2szmfw11mfh022c3yb16uj3i.wpengine.netdna-cdn.com/wp-content/uploads/2015/10/IMG_8884.jpg'
p633
aS'www.104.130.215.28/team/#john-lilly'
p634
aVwww.greylock.com/#hackfest_2015
p635
aS'www.airbnb.com/about/founders'
p636
aS'www.104.130.215.28/team/#josh-mcfarland'
p637
aS'www.tellapart.com/'
p638
aS'www.linkedin.com/pub/mike-olson/9/a0a/433'
p639
aS'www.2szmfw11mfh022c3yb16uj3i.wpengine.netdna-cdn.com/wp-content/uploads/2015/10/IMG_8055.jpg'
p640
aS'www.2szmfw11mfh022c3yb16uj3i.wpengine.netdna-cdn.com/wp-content/uploads/2015/10/IMG_8229.jpg'
p641
aS'www.linkedin.com/in/geraldfong'
p642
aS'www.linkedin.com/in/poojasankar'
p643
aS'www.2szmfw11mfh022c3yb16uj3i.wpengine.netdna-cdn.com/wp-content/uploads/2015/10/IMG_8413.jpg'
p644
aS'www.2szmfw11mfh022c3yb16uj3i.wpengine.netdna-cdn.com/wp-content/uploads/2015/10/IMG_8775.jpg'
p645
aS'www.2szmfw11mfh022c3yb16uj3i.wpengine.netdna-cdn.com/wp-content/uploads/2015/10/IMG_8699.jpg'
p646
aS'http://www.workday.com/'
p647
aS'www.104.130.215.28/team/#reid-hoffman'
p648
aS'www.linkedin.com/in/danclancy'
p649
aS'www.2szmfw11mfh022c3yb16uj3i.wpengine.netdna-cdn.com/wp-content/uploads/2015/10/IMG_8202.jpg'
p650
aS'www.2szmfw11mfh022c3yb16uj3i.wpengine.netdna-cdn.com/wp-content/uploads/2015/10/IMG_8192.jpg'
p651
aS'www.104.130.215.28/team/#david-sze'
p652
aS'www.2szmfw11mfh022c3yb16uj3i.wpengine.netdna-cdn.com/wp-content/uploads/2015/10/IMG_8358.jpg'
p653
aS'www.2szmfw11mfh022c3yb16uj3i.wpengine.netdna-cdn.com/wp-content/uploads/2015/10/IMG_8715.jpg'
p654
aS'www.youtube.com/watch?v=FmdjH1p0zJw'
p655
aS'www.104.130.215.28/team/#sarah-tavel'
p656
aS'www.youtube.com/watch?v=CLMQj64Mal8'
p657
aS'www.linkedin.com/in/nikhyl'
p658
aVwww.greylock.com/mailto:hackfest@greylock.com
p659
aS'www.2szmfw11mfh022c3yb16uj3i.wpengine.netdna-cdn.com/wp-content/uploads/2015/10/IMG_8416.jpg'
p660
aS'www.2szmfw11mfh022c3yb16uj3i.wpengine.netdna-cdn.com/wp-content/uploads/2015/10/IMG_8905.jpg'
p661
aS'www.2szmfw11mfh022c3yb16uj3i.wpengine.netdna-cdn.com/wp-content/uploads/2015/10/IMG_8588.jpg'
p662
aS'http://www.us.jll.com/united-states/en-us'
p663
a.