(lp1
Vwww.horsleybridge.com/#
p2
aVwww.horsleybridge.com/privacy_policy
p3
aVwww.horsleybridge.com/contact/beijing
p4
aVwww.horsleybridge.com/
p5
aVwww.horsleybridge.com/contact
p6
aS'http://www.finedesigngroup.com/'
p7
aVwww.horsleybridge.com/about
p8
aVwww.horsleybridge.com/people
p9
aVwww.horsleybridge.com/people/leadership
p10
aVwww.horsleybridge.com/contact/london
p11
aVwww.horsleybridge.com/sitemap
p12
aVwww.horsleybridge.com/inspiration
p13
aVwww.horsleybridge.com/people/team
p14
aVwww.horsleybridge.com/about/timeline
p15
aVwww.horsleybridge.com/mailto:info@horsleybridge.com
p16
aS'www.maps.google.com/maps?q=Beijing+China+Resources+Building+Co.,Ltd.&ll=39.912937,116.434358&spn=0.001636,0.003653&oe=utf-8&client=firefox-a&fb=1&gl=us&hq=Beijing+China+Resources+Building+Co.,Ltd.&hnear=Beijing+China+Resources+Building+Co.,Ltd.&cid=0,0,17731433335575084946&t=m&z=19'
p17
aS'www.twitter.com/@horsleybridge'
p18
aS'www.maps.google.com/maps?q=505+Montgomery+Street,+San+Francisco&oe=utf-8&client=firefox-a&hnear=505+Montgomery+St,+San+Francisco,+California+94111&gl=us&t=h&z=16'
p19
aVwww.horsleybridge.com/people/elizabeth_obershaw
p20
aVwww.horsleybridge.com/people/yi_sun
p21
aVwww.horsleybridge.com/people/du_chai
p22
aVwww.horsleybridge.com/people/kathryn_mayne
p23
aVwww.horsleybridge.com/people/kate_murphy
p24
aVwww.horsleybridge.com/people/fred_giuffrida
p25
aVwww.horsleybridge.com/people/lance_cotrill
p26
aVwww.horsleybridge.com/people/josh_freeman
p27
aS'www.maps.google.com/maps?q=4+Cork+Street++London,+W1S+3LG++U.K.&oe=utf-8&client=firefox-a&hnear=2-4+Cork+St,+London+W1S+3LG,+United+Kingdom&gl=us&t=h&z=16'
p28
aVwww.horsleybridge.com/mailto:melissa@horsleybridge.com
p29
aVwww.horsleybridge.com/mailto:cara@horsleybridge.com
p30
aVwww.horsleybridge.com/mailto:suzi@horsleybridge.com
p31
aVwww.horsleybridge.com/mailto:mark@horsleybridge.com
p32
aVwww.horsleybridge.com/mailto:doris@horsleybridge.com
p33
aVwww.horsleybridge.com/mailto:laura@horsleybridge.com
p34
aVwww.horsleybridge.com/mailto:amanda@horsleybridge.com
p35
aVwww.horsleybridge.com/mailto:monica@horsleybridge.com
p36
aVwww.horsleybridge.com/mailto:cathleen@horsleybridge.com
p37
aVwww.horsleybridge.com/mailto:tina@horsleybridge.com
p38
aVwww.horsleybridge.com/mailto:kevin@horsleybridge.com
p39
aVwww.horsleybridge.com/mailto:jenniferu@horsleybridge.com
p40
aVwww.horsleybridge.com/mailto:tiffany@horsleybridge.com
p41
aVwww.horsleybridge.com/mailto:wen@horsleybridge.com
p42
aVwww.horsleybridge.com/mailto:jessica@horsleybridge.com
p43
aVwww.horsleybridge.com/mailto:maureen@horsleybridge.com
p44
aVwww.horsleybridge.com/mailto:jocelyn@horsleybridge.com
p45
aVwww.horsleybridge.com/mailto:esteban@horsleybridge.com
p46
aVwww.horsleybridge.com/mailto:julie@horsleybridge.com
p47
aVwww.horsleybridge.com/mailto:clara@horsleybridge.com
p48
aVwww.horsleybridge.com/mailto:jackie@horsleybridge.com
p49
aVwww.horsleybridge.com/mailto:victor@horsleybridge.com
p50
aVwww.horsleybridge.com/mailto:abhi@horsleybridge.com
p51
aVwww.horsleybridge.com/mailto:jon@horsleybridge.com
p52
aVwww.horsleybridge.com/mailto:vivian@horsleybridge.com
p53
aVwww.horsleybridge.com/mailto:noelle@horsleybridge.com
p54
aVwww.horsleybridge.com/mailto:joshua@horsleybridge.com
p55
aVwww.horsleybridge.com/mailto:sandi@horsleybridge.com
p56
aVwww.horsleybridge.com/mailto:betty@horsleybridge.com
p57
aVwww.horsleybridge.com/mailto:brenda@horsleybridge.com
p58
aVwww.horsleybridge.com/mailto:eobershaw@horsleybridge.com
p59
aVwww.horsleybridge.com/mailto:yi@horsleybridge.com
p60
aVwww.horsleybridge.com/mailto:du@horsleybridge.com
p61
aVwww.horsleybridge.com/mailto:kathryn@horsleybridge.com
p62
aVwww.horsleybridge.com/mailto:kate@horsleybridge.com
p63
aVwww.horsleybridge.com/mailto:fredg@horsleybridge.com
p64
aVwww.horsleybridge.com/mailto:lance@horsleybridge.com
p65
aVwww.horsleybridge.com/mailto:josh@horsleybridge.com
p66
a.