(lp1
S'www.twitter.com/Improbableio'
p2
aS'www.linkedin.com/company/improbable'
p3
aS'www.improbable.io/about/careers'
p4
aS'www.improbable.io/2016/02/12/operational-control-of-autonomous-vehicle-fleets-powered-by-spatialos'
p5
aS'www.improbable.io/feed'
p6
aS'www.improbable.io/about'
p7
aS'www.github.com/improbable-io'
p8
aS'www.improbable.io/blog'
p9
aVwww.improbable.io/press
p10
aS'www.improbable.io/2016/02/18/how-a-team-of-five-created-a-next-gen-mmo-with-unity-and-spatialos'
p11
aS'www.improbable.io/get-spatialos'
p12
aS'www.improbable.io/about/company'
p13
aS'www.improbable.io/learn-more'
p14
aS'www.improbable.io/about/careers#noresume'
p15
aS'www.facebook.com/improbable.io'
p16
aS'www.improbable.io/about/contact'
p17
aS'www.improbable.io/'
p18
aVwww.improbable.io/#openpositions
p19
aS'http://www.forbes.com/sites/eco-nomics/2012/09/25/self-driving-cars-will-take-over-by-2040/#51b53c1e21f2'
p20
aS'www.improbable.io/category/technology'
p21
aS'www.twitter.com/share'
p22
aS'www.gov.uk/government/organisations/innovate-uk'
p23
aS'www.improbable.io/2016/02/18/how-a-team-of-five-created-a-next-gen-mmo-with-unity3d-and-spatialos/004-world-viewer'
p24
aS'http://www.bossastudios.com'
p25
aS'www.improbable.io/2016/02/18/how-a-team-of-five-created-a-next-gen-mmo-with-unity3d-and-spatialos/004-fire-visualizer'
p26
aS'www.cdixon.org/2015/03/24/improbable-enabling-the-development-of-large-scale-simulated-worlds/'
p27
aS'http://www.worldsadrift.com'
p28
aS'www.improbable.io/2016/02/18/how-a-team-of-five-created-a-next-gen-mmo-with-unity3d-and-spatialos/ship-craft-takeoff'
p29
aS'www.improbable.io/2016/02/18/how-a-team-of-five-created-a-next-gen-mmo-with-unity-and-spatialos/004-deployment-dashboard'
p30
aS'www.improbable.io/2016/02/18/how-a-team-of-five-created-a-next-gen-mmo-with-unity3d-and-spatialos/004-campfire-timelapse'
p31
aS'www.improbable.io/2016/02/18/how-a-team-of-five-created-a-next-gen-mmo-with-unity3d-and-spatialos/004-player-input'
p32
aS'www.worldsadrift.com/'
p33
aS'www.improbable.io/2016/02/18/how-a-team-of-five-created-a-next-gen-mmo-with-unity3d-and-spatialos/004-fire-behaviour'
p34
aS'www.improbable.io/2016/01/27/distributed-physics-without-server-boundaries'
p35
aS'www.improbable.io/2016/02/18/how-a-team-of-five-created-a-next-gen-mmo-with-unity3d-and-spatialos/spatialos-entity-component-worker'
p36
aS'www.a16z.com/'
p37
aS'www.improbable.io/2016/02/18/how-a-team-of-five-created-a-next-gen-mmo-with-unity3d-and-spatialos/004-main'
p38
aS'www.improbable.io/2016/02/18/how-a-team-of-five-created-a-next-gen-mmo-with-unity-and-spatialos/004-creatures-2'
p39
aS'www.improbable.io/2016/02/18/how-a-team-of-five-created-a-next-gen-mmo-with-unity-and-spatialos/004-creatures-1'
p40
aS'www.improbable.io/wp-content/uploads/2016/01/Components_Workers.png'
p41
aS'www.improbable.io/wp-content/uploads/2016/02/004-ship-blow-2.gif'
p42
aS'www.improbable.io/2016/02/18/how-a-team-of-five-created-a-next-gen-mmo-with-unity3d-and-spatialos/004-fire-component'
p43
aS'www.improbable.io/2016/02/18/how-a-team-of-five-created-a-next-gen-mmo-with-unity-and-spatialos/004-deployment-monitoring'
p44
aS'www.improbable.io/2016/02/18/how-a-team-of-five-created-a-next-gen-mmo-with-unity3d-and-spatialos/wa-early-screenshot'
p45
aS'www.improbable.io/wp-content/uploads/2016/01/FSimPathfinding.png'
p46
aS'www.en.wikipedia.org/wiki/Embarrassingly_parallel'
p47
aS'www.improbable.io/2015/03/24/hello-world'
p48
aS'www.improbable.io/2016/01/22/dynamically-distributing-a-simulation-over-hundreds-of-physics-engines'
p49
aS'http://www.gamasutra.com/view/news/256015/Improbable_How_a_team_of_15_builds_a_physicsbased_MMO.php'
p50
aS'http://www.bbc.co.uk/news/technology-32031487'
p51
aS'http://www.wired.co.uk/news/archive/2015-11/12/improbable-spatialos-simulated-cities'
p52
aS'www.venturebeat.com/2015/03/24/andressen-horowitz-invests-20m-in-startup-improbable-to-build-massive-simulated-game-worlds/'
p53
aS'http://www.alphr.com/technology/1001967/improbable-the-british-tech-startup-with-massive-ambition'
p54
aS'www.venturebeat.com/2015/11/11/improbable-unveils-software-to-power-massive-cloud-based-simulations-for-game-worlds-and-vr/'
p55
aS'www.techcrunch.com/2015/03/24/improbable-andreessen-horowitz/'
p56
aS'www.techcrunch.com/2015/11/11/probable-spatial-os/#.wnt1h2:ORHx'
p57
aS'http://www.ft.com/cms/s/0/72ea14ae-d169-11e4-98a4-00144feab7de.html#axzz3q3ta1z8A'
p58
aS'http://www.businessinsider.com/improbable-announces-launches-of-spatialos-entire-virtual-city-2015-11?r=UK&IR=T'
p59
aS'www.improbable.io/wp-content/uploads/2016/02/004-world-viewer.png'
p60
aS'www.improbable.io/2016/02/18/how-a-team-of-five-created-a-next-gen-mmo-with-unity-and-spatialos/ship-craft-takeoff'
p61
aS'www.improbable.io/wp-content/uploads/2016/02/004-fire-visualizer.png'
p62
aS'www.improbable.io/2016/02/18/how-a-team-of-five-created-a-next-gen-mmo-with-unity-and-spatialos/004-fire-behaviour-2'
p63
aS'www.improbable.io/2016/02/18/how-a-team-of-five-created-a-next-gen-mmo-with-unity-and-spatialos/004-player-input'
p64
aS'www.improbable.io/2016/02/18/how-a-team-of-five-created-a-next-gen-mmo-with-unity-and-spatialos/004-world-viewer'
p65
aS'www.improbable.io/2016/02/18/how-a-team-of-five-created-a-next-gen-mmo-with-unity-and-spatialos/ship-battle-blow'
p66
aS'www.improbable.io/wp-content/uploads/2016/02/ship-craft-takeoff.gif'
p67
aS'www.improbable.io/wp-content/uploads/2016/02/004-deployment-dashboard.png'
p68
aS'www.improbable.io/wp-content/uploads/2016/02/004-campfire-timelapse.gif'
p69
aS'www.improbable.io/2016/02/18/how-a-team-of-five-created-a-next-gen-mmo-with-unity-and-spatialos/004-main'
p70
aS'www.improbable.io/wp-content/uploads/2016/02/004-player-input.png'
p71
aS'www.improbable.io/2016/02/18/how-a-team-of-five-created-a-next-gen-mmo-with-unity-and-spatialos/004-fire-visualizer'
p72
aS'www.improbable.io/2016/02/18/how-a-team-of-five-created-a-next-gen-mmo-with-unity-and-spatialos/004-fire-component'
p73
aS'www.improbable.io/2016/02/18/how-a-team-of-five-created-a-next-gen-mmo-with-unity-and-spatialos/spatialos-entity-component-worker'
p74
aS'www.improbable.io/wp-content/uploads/2016/02/004-fire-behaviour.png'
p75
aS'www.improbable.io/2016/02/18/how-a-team-of-five-created-a-next-gen-mmo-with-unity-and-spatialos/004-fire-behaviour'
p76
aS'www.improbable.io/wp-content/uploads/2016/02/spatialos-entity-component-worker.png'
p77
aS'www.improbable.io/2016/02/18/how-a-team-of-five-created-a-next-gen-mmo-with-unity-and-spatialos/004-ship-blow-2'
p78
aS'www.improbable.io/2016/02/18/how-a-team-of-five-created-a-next-gen-mmo-with-unity-and-spatialos/004-campfire-timelapse'
p79
aS'www.improbable.io/wp-content/uploads/2016/02/004-main.jpg'
p80
aS'www.improbable.io/wp-content/uploads/2016/02/004-creatures-2.png'
p81
aS'www.improbable.io/wp-content/uploads/2016/02/004-creatures-1.png'
p82
aS'www.improbable.io/2016/02/18/how-a-team-of-five-created-a-next-gen-mmo-with-unity-and-spatialos/wa-early-screenshot'
p83
aS'www.improbable.io/wp-content/uploads/2016/02/004-fire-component.png'
p84
aS'www.improbable.io/wp-content/uploads/2016/02/004-deployment-monitoring.png'
p85
aS'www.improbable.io/wp-content/uploads/2016/02/wa-early-screenshot.png'
p86
aS'www.improbable.io/wp-content/uploads/2016/02/004-fire-behaviour-1.png'
p87
aS'www.improbable.io/wp-content/uploads/2016/02/ship-battle-blow.gif'
p88
a.