(lp1
Vwww.eiu.com/
p2
aVwww.eiu.com/mailto:Japan_customerservice@economist.com?subject=I would like to learn more about ECN in Japan&body=My contact details are:
p3
aS'http://www.eiu.com/public/topical_report.aspx?campaignid=ChinaODI2015'
p4
aS'http://www.eiu.com/public/topical_report.aspx?campaignid=IranRe-engagement'
p5
aS'www.twitter.com/search?q=US'
p6
aVwww.eiu.com/country.eiu.com/article.aspx?articleid=1463945330&Country=Serbia&topic=Politics
p7
aS'http://www.eiu.com/healthcare.aspx'
p8
aS'www.twitter.com/search?q=company'
p9
aS'http://www.rollcall.com/?t=0506EC&p=econ&s=econ'
p10
aS'www.country.eiu.com/article.aspx?articleid=323324616&Country=Saudi%20Arabia&topic=Risk&subtopic=Credit+risk&subsubtopic=Overview'
p11
aS'www.economist.com'
p12
aVwww.eiu.com/handlers/PublicDownload.ashx?mode=m&fi=data-section/country-data.pdf
p13
aS'www.twitter.com/RobinBew'
p14
aS'http://www.eiu.com/public/topical_report.aspx?campaignid=Never-endingSale2015'
p15
aS'www.twitter.com/search?q=ZikaVirus'
p16
aVwww.eiu.com/#clients
p17
aVwww.eiu.com/mailto:americas@eiu.com
p18
aS'www.twitter.com/search?q=Uganda'
p19
aS'http://www.eiu.com/industry/article/163907800/capital-controls-loom-as-chinas-renminbi-is-pressured/2016-02-02'
p20
aVwww.eiu.com/#follow
p21
aVwww.eiu.com/#practices
p22
aVwww.eiu.com/handlers/PublicDownload.ashx?mode=m&fi=risk-section/risk-briefing.pdf
p23
aS'www.twitter.com/TheEIU_LatAm'
p24
aS'www.twitter.com/TheEIU/status/697767285360951301/photo/1'
p25
aS'www.bit.ly/1Qxmvcx'
p26
aS'http://www.eiu.com/home.aspx#about'
p27
aVwww.eiu.com/tel:8135222181
p28
aS'www.twitter.com/search?q=business'
p29
aS'www.bit.ly/1TlW9sU'
p30
aS'www.twitter.com/search?q=INFOGRAPHIC'
p31
aVwww.eiu.com/mailto:claude@quantec.co.za
p32
aS'http://www.eiu.com/regulatoryaffairs'
p33
aS'www.twitter.com/PeterXPower/status/701816497744715776/photo/1'
p34
aS'www.ow.ly/XjBkt'
p35
aVwww.eiu.com/handlers/PublicDownload.ashx?mode=m&fi=industry-section/energy-briefing.pdf
p36
aVwww.eiu.com/mailto:ecninfo@economist.com?subject=I would like to learn more about ECN in Sub-Saharan Africa&body=My contact details are:
p37
aS'www.pages.eiu.com/EIUWebinarArchives.html\r\n'
p38
aS'www.twitter.com/PeterXPower'
p39
aVwww.eiu.com/handlers/PublicDownload.ashx?mode=m&fi=risk-section/operational-risk-model.pdf
p40
aVwww.eiu.com/handlers/PublicDownload.ashx?mode=m&fi=risk-section/country-risk-service.pdf
p41
aS'http://www.eiu.com/public/contact.aspx'
p42
aS'www.bit.ly/1QqU4aq'
p43
aS'http://www.eiu.com/analysts'
p44
aS'http://www.facebook.com/pages/The-Economist-Intelligence-Unit-EIU/6431878727'
p45
aVwww.eiu.com/handlers/PublicDownload.ashx?mode=m&fi=data-section/worldwide-cost-of-living.pdf
p46
aS'http://www.eiu.com/public/marketing/ContactUs.aspx?section=hero'
p47
aVwww.eiu.com/mailto:shanghai_customerservice@economist.com?subject=I would like to learn more about ECN in China&body=My contact details are:
p48
aS'http://www.eiu.com/Support/Tutorials.aspx'
p49
aVwww.eiu.com/mailto:ecninfo@economist.com?subject=I would like to learn more about ECN in Middle East and North Africa&body=My contact details are:
p50
aVwww.eiu.com/handlers/PublicDownload.ashx?mode=m&fi=risk-section/country-risk-model.pdf
p51
aVwww.eiu.com/tel:971044334202
p52
aS'www.globalcareers-economist.icims.com/jobs/intro'
p53
aS'http://www.eiu.com/publicpolicy.aspx'
p54
aVwww.eiu.com/#about
p55
aVwww.eiu.com/handlers/PublicDownload.ashx?mode=m&fi=country-analysis/country-report.pdf
p56
aS'www.bit.ly/1OYAFCS'
p57
aS'http://www.quantec.co.za'
p58
aS'http://www.eiu.com/landing/eiu_cookie_policy'
p59
aVwww.eiu.com/#
p60
aS'www.twitter.com/baptist_simon'
p61
aVwww.eiu.com/#hero
p62
aVwww.eiu.com/tel:27118815770
p63
aS'www.country.eiu.com/article.aspx?articleid=1243946908&Country=Venezuela&topic=Economy&subtopic=Forecast&subsubtopic=Policy+trends&u=1&pid=553866839&oid=553866839&uid=1'
p64
aVwww.eiu.com/mailto:aip@aip.cz 
p65
aS'www.viewswire.eiu.com/index.asp?layout=RKArticleVW3&article_id=573938841&country_id=&channel_id=&category_id=&refm=rkHome&page_title=Latest+risk+analysis'
p66
aVwww.eiu.com/healthcare.aspx
p67
aS'www.twitter.com/TheEIU_Finance'
p68
aS'www.twitter.com/TheEIU_Tech/status/699185250207952896/photo/1'
p69
aS'http://www.eiu.com/landing/licensing_permissions'
p70
aS'http://www.bbc.co.uk/news/world-asia-35628239?utm_campaign=Contact+SNS+For+More+Referrer&utm_medium=twitter&utm_source=snsanalytics'
p71
aS'www.twitter.com/TheEIU/eiu-accounts/members'
p72
aS'http://www.eiu.com/industry/article/1353840519/white-paper---industries-in-2016/2016-01-12'
p73
aVwww.eiu.com/handlers/PublicDownload.ashx?mode=m&fi=country-analysis/country-forecast.pdf
p74
aS'www.going-global.economist.com/en'
p75
aVwww.eiu.com/mailto:sezentan@gmail.com
p76
aS'www.twitter.com/TheEIU/status/700309069911891969/photo/1'
p77
aS'http://www.eiu.com/public/marketing/speaker-services?interest=AUB'
p78
aS'http://www.economistgroup.com'
p79
aS'www.facebook.com/pages/The-Economist-Intelligence-Unit-EIU/6431878727'
p80
aS'http://www.eiu.com/home.aspx#offer'
p81
aVwww.eiu.com/tel:6565345177
p82
aVwww.eiu.com/mailto:hk_customerservice@economist.com?subject=I would like to learn more about ECN in Hong Kong&body=My contact details are:
p83
aVwww.eiu.com/mailto:asia@eiu.com
p84
aVwww.eiu.com/marciozanetti@eiu.com
p85
aS'www.economistconferences.com'
p86
aS'http://www.ft.com/cms/s/0/0eab8ae4-d943-11e5-a72f-1e7744c66818.html?desktop=true#axzz40wrdeIlE'
p87
aS'www.economistgroup.com/privacy'
p88
aS'www.twitter.com/TheEIU'
p89
aVwww.eiu.com/mailto:sea_customerservice@economist.com?subject=I would like to learn more about ECN in Southeast Asia&body=My contact details are:
p90
aS'www.twitter.com/EIU_Commodities'
p91
aVwww.eiu.com/mailto:emea@eiu.com
p92
aS'www.twitter.com/search?q=Iran'
p93
aS'http://www.pinterest.com/theeiu/pins'
p94
aVwww.eiu.com/handlers/PublicDownload.ashx?mode=m&fi=data-section/market-indicators-_-forecasts.pdf
p95
aVwww.eiu.com/handlers/PublicDownload.ashx?mode=m&fi=data-section/world-investment-services.pdf
p96
aVwww.eiu.com/#offer
p97
aS'www.bit.ly/1RzKOGX'
p98
aS'www.twitter.com/TheEIU_Auto'
p99
aS'http://www.eiu.com/public/terms.aspx'
p100
aS'www.twitter.com/RobertAlanWard'
p101
aVwww.eiu.com/mailto:eiucustomerservices@eiu.com
p102
aS'www.store.eiu.com'
p103
aS'www.twitter.com/search?q=Brazil'
p104
aS'www.twitter.com/BNPP2S'
p105
aS'www.twitter.com/search?q=PGK'
p106
aS'http://www.linkedin.com/groups?home=&gid=2261677'
p107
aS'www.twitter.com/TheEIU_MENA'
p108
aS'www.twitter.com/search?q=Museveni'
p109
aS'www.twitter.com/TheEIU_Asia'
p110
aS'www.twitter.com/TheEIU_Europe'
p111
aS'www.twitter.com/search?q=Nigeria'
p112
aS'www.store.eiu.com/'
p113
aS'http://www.bazian.com'
p114
aS'http://www.eiu.com/home.aspx'
p115
aVwww.eiu.com/mailto:info@bharatbook.com
p116
aS'www.bit.ly/1Qon6an'
p117
aS'http://www.eiu.com/home.aspx#practices-CH'
p118
aS'www.eiu.com/Login.aspx?c=1'
p119
aS'www.twitter.com/TheEIU_Consumer'
p120
aS'www.twitter.com/search?q=Angola'
p121
aS'www.twitter.com/search?q=Kina'
p122
aVwww.eiu.com/tel:861085712188
p123
aS'www.twitter.com/search?q=Venezuela'
p124
aS'www.twitter.com/search?q=tourism'
p125
aS'www.corporatenetwork.com'
p126
aS'www.twitter.com/search?q=SouthAfrica'
p127
aS'www.twitter.com/TheEIU_Africa/status/701330291244322816/photo/1'
p128
aS'www.twitter.com/TheEIU_China'
p129
aS'http://www.eiu.com/market-explorer.aspx'
p130
aS'http://www.eiu.com/Default.aspx'
p131
aS'www.twitter.com/TheEIU_Forecast'
p132
aS'www.bit.ly/1PHDENh'
p133
aS'www.twitter.com/TheEIU_China/status/701957640977428484/photo/1'
p134
aS'http://www.eiu.com/landing/infographics_gallery'
p135
aS'www.twitter.com/TheEIU_Africa'
p136
aVwww.eiu.com/handlers/PublicDownload.ashx?mode=m&fi=industry-section/financial-services-briefing.pdf
p137
aVwww.eiu.com/handlers/PublicDownload.ashx?mode=m&fi=country-analysis/access_china.pdf
p138
aS'http://www.eiu.com/growth-markets.aspx'
p139
aVwww.eiu.com/handlers/PublicDownload.ashx?mode=m&fi=country-analysis/country-commerce.pdf
p140
aVwww.eiu.com/tel:85225853888
p141
aS'http://www.clearstate.com'
p142
aS'www.twitter.com/TheEIU_Europe/status/701935007246499841/photo/1'
p143
aS'www.twitter.com/TheEIU_Health'
p144
aS'www.ow.ly/YaIg7'
p145
aS'http://www.eiuperspectives.economist.com'
p146
aS'www.twitter.com/TheEIU_Tech'
p147
aVwww.eiu.com/public/marketing/ContactUs.aspx
p148
aVwww.eiu.com/#introduction
p149
aS'http://www.linkedin.com/company/the-economist-intelligence-unit'
p150
aS'www.twitter.com/JananGanesh'
p151
aVwww.eiu.com/#thinking
p152
aS'http://www.eiu.com/public/topical_report.aspx?campaignid=IndustriesIn2016'
p153
aVwww.eiu.com/mailto:beijing_customerservice@economist.com?subject=I would like to learn more about ECN in China&body=My contact details are:
p154
aVwww.eiu.com/handlers/PublicDownload.ashx?mode=m&fi=industry-section/world-commodity-forecasts.pdf
p155
aS'www.country.eiu.com/article.aspx?articleid=1223946706&Country=Saudi%20Arabia&topic=Economy&subtopic=Forecast&subsubtopic=Policy+trends&u=1&pid=1073916691&oid=1073916691&uid=1'
p156
aS'www.twitter.com/search?q=Africa'
p157
aS'www.plus.google.com/109762442432409293891'
p158
aS'http://www.eiu.com/landing/special_reports'
p159
aS'www.twitter.com/search?q=PNG'
p160
aVwww.eiu.com/handlers/PublicDownload.ashx?mode=m&fi=country-analysis/viewswire.pdf
p161
aVwww.eiu.com/handlers/PublicDownload.ashx?mode=m&fi=industry-section/industry-briefing-and-forecasts.pdf
p162
aS'www.twitter.com/TheEIU_Finance/status/695658943167774720/photo/1'
p163
aS'www.twitter.com/TheEIU'
p164
aS'http://www.eiu.com/public/topical_report.aspx?campaignid=DemocracyIndex2015'
p165
aS'www.twitter.com/TheEIU_Energy'
p166
aS'http://www.eurofinance.com/'
p167
aVwww.eiu.com/handlers/PublicDownload.ashx?mode=m&fi=industry-section/telecommunications briefing-_-forecasts.pdf
p168
aS'http://www.eiu.com/industry/article/1223914506/clothing-the-world/2016-02-04'
p169
aS'http://www.eiu.com/industry/Automotive'
p170
aS'http://www.eiu.com/industry/Consumer-goods'
p171
aS'www.country.eiu.com/AllCountries.aspx'
p172
aS'http://www.eiu.com/'
p173
aS'www.country.eiu.com/AllCountries.aspx?view=all'
p174
aS'www.eiu.com/Login.aspx?mode=up'
p175
aVwww.eiu.com/#content
p176
aS'http://www.eiu.com/industry/Telecommunications'
p177
aS'http://www.eiu.com/industry/Healthcare'
p178
aS'www.viewswire.eiu.com/index.asp?layout=homePubTypeRK'
p179
aS'http://www.omniture.com'
p180
aS'http://www.eiu.com/industry/Energy'
p181
aS'http://www.eiu.com/industry/Financial-services'
p182
aS'www.eiu.com/public/signup.aspx?mode=register'
p183
aS'http://www.eiu.com/home.aspx#offer-ss-data'
p184
aS'http://www.eiu.com'
p185
aS'http://www.eiu.com/industry/commodities/articlelist'
p186
aS'http://www.eiu.com/market-explorer'
p187
aS'www.twitter.com/search?q=MentalHealth'
p188
aS'http://www.clearstate.com/gateway'
p189
aVwww.eiu.com/#aboutus
p190
aVwww.eiu.com/public/marketing/ContactUs.aspx?interest=CSH&returnUrl=healthcare
p191
aVwww.eiu.com/#events
p192
aS'http://www.economist.com/events-conferences/asia/healthcare-2016?cid1=eve/iedm/Eloqua/home/none/na/none/edm/HCA/HCA-edm-savethedate-1/none/none/asia/none'
p193
aS'www.twitter.com/NIHR_DC'
p194
aS'www.buff.ly/1WruohY'
p195
aS'http://www.eiu.com/public/topical_report.aspx?campaignid=VBHNov2015'
p196
aVwww.eiu.com/#applications
p197
aVwww.eiu.com/#client
p198
aS'www.twitter.com/search?q=mentalhealth'
p199
aVwww.eiu.com/#services
p200
aS'http://www.eiuperspectives.economist.com/healthcare/value-based-healthcare-portugal-necessity-mother-invention'
p201
aS'www.twitter.com/MentalHealthCop'
p202
aVwww.eiu.com/public/marketing/ContactUs.aspx?interest=EPM&section=hero&returnurl=consumer-markets
p203
aS'www.buff.ly/1mHiuo2'
p204
aS'http://www.eiu.com/public/topical_report.aspx?campaignid=Biosciences2025'
p205
aS'http://www.eiu.com/public/topical_report.aspx?campaignid=NHScomparison2015'
p206
aS'http://www.eiu.com/industry/healthcare'
p207
aS'http://www.eiu.com/China2020'
p208
aVwww.eiu.com/mailto:london@eiu.com
p209
a.