(lp1
Vwww.learnsprout.com/policies#security
p2
aVwww.learnsprout.com/policies#terms
p3
aVwww.learnsprout.com/policies
p4
aVwww.learnsprout.com/policies#privacy
p5
aVwww.learnsprout.com/
p6
aS'www.learnsprout-static.s3.amazonaws.com/public/LearnSprout_Data_Model.pdf'
p7
aS'www.learnsprout-static.s3.amazonaws.com/public/LearnSprout_Security_Policy.pdf'
p8
aVwww.learnsprout.com/terms
p9
aVwww.learnsprout.com/privacy
p10
aS'www.learnsprout-static.s3.amazonaws.com/public/LearnSprout_Terms_of_Service.pdf'
p11
aS'www.github.com/LearnSprout/learnsprout-docs'
p12
aS'www.learnsprout-static.s3.amazonaws.com/public/LearnSprout_Privacy_Policy.pdf'
p13
aVwww.learnsprout.com/mailto:privacy@learnsprout.com
p14
a.