(lp1
S'www.www1.toutapp.com/sales-development/'
p2
aS'www.www1.toutapp.com/heroes/'
p3
aS'www.www1.toutapp.com/prospect-builder/'
p4
aS'www.www1.toutapp.com/product-tour/benefits-by-role/marketing/'
p5
aS'www.www1.toutapp.com/'
p6
aS'www.www1.toutapp.com/blog/'
p7
aS'www.www1.toutapp.com/salesforce-integration/'
p8
aVwww.toutapp.com/#
p9
aS'www.www1.toutapp.com/jobs'
p10
aS'www.www1.toutapp.com/email-automation/'
p11
aS'www.www1.toutapp.com/product-tour/benefits-by-role/managers/'
p12
aS'www.www1.toutapp.com/niko-plugin/'
p13
aS'www.www1.toutapp.com/blog/introducing-sales-campaigns/'
p14
aS'www.www1.toutapp.com/tout-analytics/'
p15
aS'www.www1.toutapp.com/product-tour/benefits-by-role/sales-reps/'
p16
aS'www.toutapp.com/account/new/g3solo'
p17
aS'www.toutapp.com/login'
p18
aS'www.www1.toutapp.com/pricing/'
p19
aS'www.help.toutapp.com'
p20
aS'www.toutapp.wpengine.com/customers/'
p21
aS'www.www1.toutapp.com/product-tour/tout-connect/'
p22
aS'www.www1.toutapp.com/sales-marketing-alignment-recommended-templates/'
p23
aS'www.www1.toutapp.com/product-tour/benefits-by-role/customer-success/'
p24
aS'www.www1.toutapp.com/nonprofits/'
p25
aS'www.www1.toutapp.com/outlook-integration/'
p26
aS'www.toutapp.com/help/sales'
p27
aS'www.www1.toutapp.com/lead-prioritization/'
p28
aS'www.www1.toutapp.com/gmail-integration/'
p29
aVwww.toutapp.com/#top
p30
aS'www.www1.toutapp.com/tout-tracking/'
p31
aS'www.www1.toutapp.com/company/'
p32
aS'www.www1.toutapp.com/university/'
p33
aS'www.www1.toutapp.com/tout-calendar/'
p34
aS'www.www1.toutapp.com/sales-beat/'
p35
aS'www.www1.toutapp.com/tout-templates/'
p36
aVwww.toutapp.com//fast.wistia.net/embed/iframe/voiyuwrkhj?popover=true
p37
aS'www.www1.toutapp.com/customers/'
p38
aS'www.www1.toutapp.com/command-center/'
p39
aS'www.jobs.toutapp.com'
p40
aS'www.www1.toutapp.com/product-tour/benefits-by-role/sales-operations/'
p41
aS'www.www1.toutapp.com/marketing-automation/'
p42
aS'www.www1.toutapp.com/press/'
p43
aS'www.toutapp.com/help/problem?utm_source=pitches_page&subject=I received a 404 error.'
p44
aS'www.toutapp.com/terms'
p45
aVwww.toutapp.com/
p46
aS'www.toutapp.com/privacy'
p47
aS'www.toutapp.wufoo.com/forms/z7x2m3/'
p48
aS'http://www.toutapp.com'
p49
aS'www.toutapp.com/account/new'
p50
aVwww.toutapp.com/help/problem
p51
aVwww.toutapp.com/help/question
p52
aVwww.toutapp.com/mailto:team@toutapp.com
p53
aVwww.toutapp.com/mailto:privacy@toutapp.com
p54
a.